Archive member included because of file (symbol)

c:/program files (x86)/microchip/xc32/v1.10/bin/../lib/gcc/pic32mx/4.5.1/../../../../pic32mx/lib\libmchp_peripheral.a(read_core_timer_lib.o)
                              build/XC32-PIC32_ETH_SK_ETH795/production/_ext/1954962658/ETHPIC32ExtPhy.o (ReadCoreTimer)
c:/program files (x86)/microchip/xc32/v1.10/bin/../lib/gcc/pic32mx/4.5.1/../../../../pic32mx/lib\libmchp_peripheral_32MX795F512L.a(eth_ack_packet_lib.o)
                              build/XC32-PIC32_ETH_SK_ETH795/production/_ext/1954962658/ETHPIC32IntMac.o (EthRxAcknowledgeBuffer)
c:/program files (x86)/microchip/xc32/v1.10/bin/../lib/gcc/pic32mx/4.5.1/../../../../pic32mx/lib\libmchp_peripheral_32MX795F512L.a(eth_descriptors_add_lib.o)
                              build/XC32-PIC32_ETH_SK_ETH795/production/_ext/1954962658/ETHPIC32IntMac.o (EthDescriptorsPoolAdd)
c:/program files (x86)/microchip/xc32/v1.10/bin/../lib/gcc/pic32mx/4.5.1/../../../../pic32mx/lib\libmchp_peripheral_32MX795F512L.a(eth_init_lib.o)
                              build/XC32-PIC32_ETH_SK_ETH795/production/_ext/1954962658/ETHPIC32IntMac.o (EthInit)
c:/program files (x86)/microchip/xc32/v1.10/bin/../lib/gcc/pic32mx/4.5.1/../../../../pic32mx/lib\libmchp_peripheral_32MX795F512L.a(eth_mac_open_lib.o)
                              build/XC32-PIC32_ETH_SK_ETH795/production/_ext/1954962658/ETHPIC32IntMac.o (EthMACOpen)
c:/program files (x86)/microchip/xc32/v1.10/bin/../lib/gcc/pic32mx/4.5.1/../../../../pic32mx/lib\libmchp_peripheral_32MX795F512L.a(eth_mac_set_address_max_lib.o)
                              build/XC32-PIC32_ETH_SK_ETH795/production/_ext/1954962658/ETHPIC32IntMac.o (EthMACSetAddress)
c:/program files (x86)/microchip/xc32/v1.10/bin/../lib/gcc/pic32mx/4.5.1/../../../../pic32mx/lib\libmchp_peripheral_32MX795F512L.a(eth_rx_buffers_append_lib.o)
                              build/XC32-PIC32_ETH_SK_ETH795/production/_ext/1954962658/ETHPIC32IntMac.o (EthRxBuffersAppend)
c:/program files (x86)/microchip/xc32/v1.10/bin/../lib/gcc/pic32mx/4.5.1/../../../../pic32mx/lib\libmchp_peripheral_32MX795F512L.a(eth_rx_filters_lib.o)
                              build/XC32-PIC32_ETH_SK_ETH795/production/_ext/1954962658/ETHPIC32IntMac.o (EthRxFiltersSet)
c:/program files (x86)/microchip/xc32/v1.10/bin/../lib/gcc/pic32mx/4.5.1/../../../../pic32mx/lib\libmchp_peripheral_32MX795F512L.a(eth_rx_get_packet_lib.o)
                              build/XC32-PIC32_ETH_SK_ETH795/production/_ext/1954962658/ETHPIC32IntMac.o (EthRxGetBuffer)
c:/program files (x86)/microchip/xc32/v1.10/bin/../lib/gcc/pic32mx/4.5.1/../../../../pic32mx/lib\libmchp_peripheral_32MX795F512L.a(eth_rx_set_buffer_size_lib.o)
                              build/XC32-PIC32_ETH_SK_ETH795/production/_ext/1954962658/ETHPIC32IntMac.o (EthRxSetBufferSize)
c:/program files (x86)/microchip/xc32/v1.10/bin/../lib/gcc/pic32mx/4.5.1/../../../../pic32mx/lib\libmchp_peripheral_32MX795F512L.a(eth_tx_packet_lib.o)
                              build/XC32-PIC32_ETH_SK_ETH795/production/_ext/1954962658/ETHPIC32IntMac.o (EthTxSendBuffer)
c:/program files (x86)/microchip/xc32/v1.10/bin/../lib/gcc/pic32mx/4.5.1/../../../../pic32mx/lib\libmchp_peripheral_32MX795F512L.a(_eth_append_busy_list_lib.o)
                              c:/program files (x86)/microchip/xc32/v1.10/bin/../lib/gcc/pic32mx/4.5.1/../../../../pic32mx/lib\libmchp_peripheral_32MX795F512L.a(eth_ack_packet_lib.o) (_EthAppendBusyList)
c:/program files (x86)/microchip/xc32/v1.10/bin/../lib/gcc/pic32mx/4.5.1/../../../../pic32mx/lib\libmchp_peripheral_32MX795F512L.a(eth_miim_access.o)
                              build/XC32-PIC32_ETH_SK_ETH795/production/_ext/1954962658/ETHPIC32ExtPhy.o (EthMIIMReadStart)
c:/program files (x86)/microchip/xc32/v1.10/bin/../lib/gcc/pic32mx/4.5.1/../../../../pic32mx/lib\libmchp_peripheral_32MX795F512L.a(pcache.o)
                              build/XC32-PIC32_ETH_SK_ETH795/production/_ext/1472/MainDemo.o (CheKseg0CacheOn)
c:/program files (x86)/microchip/xc32/v1.10/bin/../lib/gcc/pic32mx/4.5.1/../../../../pic32mx/lib\libmchp_peripheral_32MX795F512L.a(int_disable_interrupts_lib.o)
                              build/XC32-PIC32_ETH_SK_ETH795/production/_ext/1472/MainDemo.o (INTDisableInterrupts)
c:/program files (x86)/microchip/xc32/v1.10/bin/../lib/gcc/pic32mx/4.5.1/../../../../pic32mx/lib\libmchp_peripheral_32MX795F512L.a(int_restore_interrupts_lib.o)
                              build/XC32-PIC32_ETH_SK_ETH795/production/_ext/1472/MainDemo.o (INTRestoreInterrupts)
c:/program files (x86)/microchip/xc32/v1.10/bin/../lib/gcc/pic32mx/4.5.1/../../../../pic32mx/lib\libmchp_peripheral_32MX795F512L.a(int_enable_mv_int_lib.o)
                              build/XC32-PIC32_ETH_SK_ETH795/production/_ext/1472/MainDemo.o (INTEnableSystemMultiVectoredInt)
c:/program files (x86)/microchip/xc32/v1.10/bin/../lib/gcc/pic32mx/4.5.1/../../../../pic32mx/lib\libmchp_peripheral_32MX795F512L.a(int_tbl_lib.o)
                              c:/program files (x86)/microchip/xc32/v1.10/bin/../lib/gcc/pic32mx/4.5.1/../../../../pic32mx/lib\libmchp_peripheral_32MX795F512L.a(eth_init_lib.o) (INTClearFlag)
c:/program files (x86)/microchip/xc32/v1.10/bin/../lib/gcc/pic32mx/4.5.1/../../../../pic32mx/lib\libmchp_peripheral_32MX795F512L.a(port_set_pins_digital_in_lib.o)
                              build/XC32-PIC32_ETH_SK_ETH795/production/_ext/1954962658/ETHPIC32ExtPhy.o (PORTSetPinsDigitalIn)
c:/program files (x86)/microchip/xc32/v1.10/bin/../lib/gcc/pic32mx/4.5.1/../../../../pic32mx/lib\libmchp_peripheral_32MX795F512L.a(port_set_pins_digital_out_lib.o)
                              build/XC32-PIC32_ETH_SK_ETH795/production/_ext/1954962658/ETHPIC32ExtPhy.o (PORTSetPinsDigitalOut)
c:/program files (x86)/microchip/xc32/v1.10/bin/../lib/gcc/pic32mx/4.5.1/../../../../pic32mx/lib\libmchp_peripheral_32MX795F512L.a(_ports_tbl_libp.o)
                              c:/program files (x86)/microchip/xc32/v1.10/bin/../lib/gcc/pic32mx/4.5.1/../../../../pic32mx/lib\libmchp_peripheral_32MX795F512L.a(port_set_pins_digital_in_lib.o) (PortRegTbl)
c:/program files (x86)/microchip/xc32/v1.10/bin/../lib/gcc/pic32mx/4.5.1/../../../../pic32mx/lib\libmchp_peripheral_32MX795F512L.a(int_enable_interrupts_lib.o)
                              c:/program files (x86)/microchip/xc32/v1.10/bin/../lib/gcc/pic32mx/4.5.1/../../../../pic32mx/lib\libmchp_peripheral_32MX795F512L.a(int_enable_mv_int_lib.o) (INTEnableInterrupts)
c:/program files (x86)/microchip/xc32/v1.10/bin/../lib/gcc/pic32mx/4.5.1\libgcc.a(_udivdi3.o)
                              build/XC32-PIC32_ETH_SK_ETH795/production/_ext/1954962658/AutoIP.o (__udivdi3)
c:/program files (x86)/microchip/xc32/v1.10/bin/../lib/gcc/pic32mx/4.5.1\libgcc.a(_umoddi3.o)
                              build/XC32-PIC32_ETH_SK_ETH795/production/_ext/1954962658/DHCP.o (__umoddi3)
c:/program files (x86)/microchip/xc32/v1.10/bin/../lib/gcc/pic32mx/4.5.1/../../../../pic32mx/lib\libpic32.a(memcmp.o)
                              build/XC32-PIC32_ETH_SK_ETH795/production/_ext/1954962658/ETHPIC32IntMac.o (memcmp)
c:/program files (x86)/microchip/xc32/v1.10/bin/../lib/gcc/pic32mx/4.5.1/../../../../pic32mx/lib\libpic32.a(memcpy.o)
                              build/XC32-PIC32_ETH_SK_ETH795/production/_ext/1954962658/ARP.o (memcpy)
c:/program files (x86)/microchip/xc32/v1.10/bin/../lib/gcc/pic32mx/4.5.1/../../../../pic32mx/lib\libpic32.a(memset.o)
                              build/XC32-PIC32_ETH_SK_ETH795/production/_ext/1472/BerkeleyUDPClientDemo.o (memset)
c:/program files (x86)/microchip/xc32/v1.10/bin/../lib/gcc/pic32mx/4.5.1/../../../../pic32mx/lib\libpic32.a(strlen.o)
                              build/XC32-PIC32_ETH_SK_ETH795/production/_ext/1472/BerkeleyTCPClientDemo.o (strlen)
c:/program files (x86)/microchip/xc32/v1.10/bin/../lib/gcc/pic32mx/4.5.1/../../../../pic32mx/lib\libpic32.a(default-bootstrap-exception-handler.o)
                              c:/program files (x86)/microchip/xc32/v1.10/bin/../lib/gcc/pic32mx/4.5.1/../../../../pic32mx/lib/crt0.o (_bootstrap_exception_handler)
c:/program files (x86)/microchip/xc32/v1.10/bin/../lib/gcc/pic32mx/4.5.1/../../../../pic32mx/lib\libpic32.a(default-on-reset.o)
                              c:/program files (x86)/microchip/xc32/v1.10/bin/../lib/gcc/pic32mx/4.5.1/../../../../pic32mx/lib/crt0.o (_on_reset)
c:/program files (x86)/microchip/xc32/v1.10/bin/../lib/gcc/pic32mx/4.5.1/../../../../pic32mx/lib\libpic32.a(default-on-bootstrap.o)
                              c:/program files (x86)/microchip/xc32/v1.10/bin/../lib/gcc/pic32mx/4.5.1/../../../../pic32mx/lib/crt0.o (_on_bootstrap)
c:/program files (x86)/microchip/xc32/v1.10/bin/../lib/gcc/pic32mx/4.5.1/../../../../pic32mx/lib\libpic32.a(default-nmi-handler.o)
                              c:/program files (x86)/microchip/xc32/v1.10/bin/../lib/gcc/pic32mx/4.5.1/../../../../pic32mx/lib/crt0.o (_nmi_handler)
c:/program files (x86)/microchip/xc32/v1.10/bin/../lib/gcc/pic32mx/4.5.1/../../../../pic32mx/lib\libpic32.a(general-exception.o)
                              c:/program files (x86)/microchip/xc32/v1.10/bin/../lib/gcc/pic32mx/4.5.1/../../../../pic32mx/lib/crt0.o (_general_exception_context)
c:/program files (x86)/microchip/xc32/v1.10/bin/../lib/gcc/pic32mx/4.5.1/../../../../pic32mx/lib\libc.a(calloc.o)
                              build/XC32-PIC32_ETH_SK_ETH795/production/_ext/1954962658/ETHPIC32IntMac.o (calloc)
c:/program files (x86)/microchip/xc32/v1.10/bin/../lib/gcc/pic32mx/4.5.1/../../../../pic32mx/lib\libc.a(malloc.o)
                              c:/program files (x86)/microchip/xc32/v1.10/bin/../lib/gcc/pic32mx/4.5.1/../../../../pic32mx/lib\libc.a(calloc.o) (malloc)
c:/program files (x86)/microchip/xc32/v1.10/bin/../lib/gcc/pic32mx/4.5.1/../../../../pic32mx/lib\libc.a(strncpy.o)
                              build/XC32-PIC32_ETH_SK_ETH795/production/_ext/1954962658/Helpers.o (strncpy)
c:/program files (x86)/microchip/xc32/v1.10/bin/../lib/gcc/pic32mx/4.5.1/../../../../pic32mx/lib\libpic32.a(sbrk.o)
                              c:/program files (x86)/microchip/xc32/v1.10/bin/../lib/gcc/pic32mx/4.5.1/../../../../pic32mx/lib\libc.a(malloc.o) (sbrk)
c:/program files (x86)/microchip/xc32/v1.10/bin/../lib/gcc/pic32mx/4.5.1/../../../../pic32mx/lib\libpic32.a(errno.o)
                              c:/program files (x86)/microchip/xc32/v1.10/bin/../lib/gcc/pic32mx/4.5.1/../../../../pic32mx/lib\libpic32.a(sbrk.o) (errno)

Allocating common symbols
Common symbol       size              file

activeUDPSocket     0x1               build/XC32-PIC32_ETH_SK_ETH795/production/_ext/1954962658/UDP.o
UDPTxCount          0x2               build/XC32-PIC32_ETH_SK_ETH795/production/_ext/1954962658/UDP.o
_PhyAdd             0x4               build/XC32-PIC32_ETH_SK_ETH795/production/_ext/1954962658/ETHPIC32ExtPhy.o
AN0String           0x8               build/XC32-PIC32_ETH_SK_ETH795/production/_ext/1472/MainDemo.o
UDPSocketInfo       0xe0              build/XC32-PIC32_ETH_SK_ETH795/production/_ext/1954962658/UDP.o
remoteNode          0xa               build/XC32-PIC32_ETH_SK_ETH795/production/_ext/1954962658/StackTsk.o
UDPRxCount          0x2               build/XC32-PIC32_ETH_SK_ETH795/production/_ext/1954962658/UDP.o
DhcpIpPool          0x78              build/XC32-PIC32_ETH_SK_ETH795/production/_ext/1954962658/DHCPs.o
AppConfig           0x33              build/XC32-PIC32_ETH_SK_ETH795/production/_ext/1472/MainDemo.o

Microchip PIC32 Memory-Usage Report

kseg0 Program-Memory Usage
section                    address  length [bytes]      (dec)  Description
-------                 ----------  -------------------------  -----------
.text                   0x9d000020        0x13fc4       81860  App's exec code 
.rodata                 0x9d013fe4          0x7d4        2004  Read-only const 
.text                   0x9d0147b8         0x25e0        9696  App's exec code 
.dinit                  0x9d016d98          0x350         848   
.text                   0x9d0170e8          0x8f0        2288  App's exec code 
.text.malloc            0x9d0179d8          0x288         648   
.text                   0x9d017c60          0x264         612  App's exec code 
.text.EthRxBuffersAppen 0x9d017ec4          0x264         612   
.text._EthAckPacket     0x9d018128          0x1dc         476   
.text                   0x9d018304          0x1c4         452  App's exec code 
.text._sbrk_init        0x9d0184c8          0x194         404   
.text._EthRxAckBuffer   0x9d01865c          0x184         388   
.text.EthRxGetPacket    0x9d0187e0          0x180         384   
.text.realloc           0x9d018960          0x17c         380   
.text                   0x9d018adc          0x428        1064  App's exec code 
.text.EthTxSendPacket   0x9d018f04          0x150         336   
.text._EthAppendBusyLis 0x9d019054          0x144         324   
.text.EthDescriptorsPoo 0x9d019198          0x134         308   
.text.EthDescriptorsAdd 0x9d0192cc          0x12c         300   
.text                   0x9d0193f8           0xf0         240  App's exec code 
.text.general_exception 0x9d0194e8           0xd0         208   
.text.EthTxSendBuffer   0x9d0195b8           0xc4         196   
.text._sbrk             0x9d01967c           0xc4         196   
.text.EthInit           0x9d019740           0xb4         180   
.text.EthMACOpen        0x9d0197f4           0xb4         180   
.text._EthTxSchedBuffer 0x9d0198a8           0xac         172   
.text                   0x9d019954          0x140         320  App's exec code 
.text._EthTxSchedList   0x9d019a94           0x8c         140   
.text.EthMIIMConfig     0x9d019b20           0x80         128   
.text.EthTxGetBufferSta 0x9d019ba0           0x70         112   
.text.EthRxFiltersPMSet 0x9d019c10           0x6c         108   
.rodata                 0x9d019c7c           0x68         104  Read-only const 
.text.strncpy           0x9d019ce4           0x60          96   
.text.calloc            0x9d019d44           0x5c          92   
.text.INTEnable         0x9d019da0           0x58          88   
.rodata                 0x9d019df8           0x54          84  Read-only const 
.text.sbrk              0x9d019e4c           0x50          80   
.text.EthMACSetAddress  0x9d019e9c           0x48          72   
.text.EthMACGetAddress  0x9d019ee4           0x44          68   
.text.EthMIIMReadStart  0x9d019f28           0x40          64   
.text.PORTSetPinsDigita 0x9d019f68           0x40          64   
.text.PORTSetPinsDigita 0x9d019fa8           0x40          64   
.text.EthRxGetBuffer    0x9d019fe8           0x3c          60   
.text.INTSetVectorPrior 0x9d01a024           0x3c          60   
.text.INTSetVectorSubPr 0x9d01a060           0x3c          60   
.text                   0x9d01a09c           0x38          56  App's exec code 
.rodata                 0x9d01a0d4           0x38          56  Read-only const 
.text._EthFindPacket    0x9d01a10c           0x38          56   
.text.EthMIIMWriteStart 0x9d01a144           0x38          56   
.text.EthMIIMScanStart  0x9d01a17c           0x34          52   
.text.INTEnableSystemMu 0x9d01a1b0           0x34          52   
.text.EthTxAcknowledgeB 0x9d01a1e4           0x30          48   
.text.EthTxAckBuffer    0x9d01a214           0x30          48   
.text.EthRxSetBufferSiz 0x9d01a244           0x30          48   
.text.INTGetVectorPrior 0x9d01a274           0x30          48   
.text.INTGetVectorSubPr 0x9d01a2a4           0x30          48   
.text.INTClearFlag      0x9d01a2d4           0x2c          44   
.text.INTSetFlag        0x9d01a300           0x2c          44   
.text.INTGetFlag        0x9d01a32c           0x2c          44   
.text.INTGetEnable      0x9d01a358           0x2c          44   
.text._stub_sbd_memlayo 0x9d01a384           0x2c          44   
.text.EthMIIMReadResult 0x9d01a3b0           0x28          40   
.text.free              0x9d01a3d8           0x24          36   
.text.EthMIIMScanResult 0x9d01a3fc           0x20          32   
.text.EthRxAcknowledgeB 0x9d01a41c           0x1c          28   
.text.EthRxAckBuffer    0x9d01a438           0x1c          28   
.text.INTRestoreInterru 0x9d01a454           0x1c          28   
.text.EthRxFiltersHTSet 0x9d01a470           0x18          24   
.text.CheKseg0CacheOff  0x9d01a488           0x18          24   
.text.CheKseg0CacheOn   0x9d01a4a0           0x18          24   
.text                   0x9d01a4b8           0x18          24  App's exec code 
.rodata                 0x9d01a4d0           0x28          40  Read-only const 
.text.EthMACSetMaxFrame 0x9d01a4f8           0x14          20   
.text.EthRxFiltersPMClr 0x9d01a50c           0x14          20   
.rodata                 0x9d01a520           0x20          32  Read-only const 
.text.EthRxFiltersSet   0x9d01a540           0x10          16   
.text.EthRxFiltersClr   0x9d01a550           0x10          16   
.text.EthRxFiltersWrite 0x9d01a560           0x10          16   
.rodata                 0x9d01a570           0x10          16  Read-only const 
.text._bootstrap_except 0x9d01a580            0xc          12   
.rodata                 0x9d01a58c            0x8           8  Read-only const 
.text.ReadCoreTimer     0x9d01a594            0x8           8   
.text.INTDisableInterru 0x9d01a59c            0x8           8   
.text.INTEnableInterrup 0x9d01a5a4            0x8           8   
.text._on_reset         0x9d01a5ac            0x8           8   
.text._on_bootstrap     0x9d01a5b4            0x8           8   
.text.getpagesize       0x9d01a5bc            0x8           8   
      Total kseg0_program_mem used  :     0x1a5a4      107940  20.6% of 0x80000

kseg0 Boot-Memory Usage
section                    address  length [bytes]      (dec)  Description
-------                 ----------  -------------------------  -----------
         Total kseg0_boot_mem used  :           0           0  <1% of 0x970

Exception-Memory Usage 
section                    address  length [bytes]      (dec)  Description
-------                 ----------  -------------------------  -----------
.app_excpt              0x9fc01180           0x10          16  General-Exception 
.vector_4               0x9fc01280            0x8           8  Interrupt Vector 4 
          Total exception_mem used  :        0x18          24  0.6% of 0x1000

kseg1 Boot-Memory Usage
section                    address  length [bytes]      (dec)  Description
-------                 ----------  -------------------------  -----------
.reset                  0xbfc00000          0x1f4         500  Reset handler 
.bev_excpt              0xbfc00380           0x10          16  BEV-Exception 
         Total kseg1_boot_mem used  :       0x204         516  44.2% of 0x490
        --------------------------------------------------------------------------
         Total Program Memory used  :     0x1a7c0      108480  20.4% of 0x81e00
        --------------------------------------------------------------------------


kseg1 Data-Memory Usage
section                    address  length [bytes]      (dec)  Description
-------                 ----------  -------------------------  -----------
.eh_frame               0xa0000000           0x30          48   
.persist                0xa0000030            0x8           8   
.sdata                  0xa0000038           0x30          48  Small init data 
.sbss                   0xa0000068          0x13c         316  Small uninit data 
.bss                    0xa00001a4          0x198         408  Uninitialized data 
.bss                    0xa000033c         0x7e90       32400  Uninitialized data 
.data                   0xa00081cc           0x70         112  Initialized data 
.bss                    0xa000823c           0xbc         188  Uninitialized data 
.data                   0xa00082f8           0x10          16  Initialized data 
.bss                    0xa0008308           0x28          40  Uninitialized data 
         Total kseg1_data_mem used  :      0x8330       33584  25.6% of 0x20000
        --------------------------------------------------------------------------
            Total Data Memory used  :      0x8330       33584  25.6% of 0x20000
        --------------------------------------------------------------------------


Dynamic Data-Memory Reservation
section                    address  length [bytes]      (dec)  Description
-------                 ----------  -------------------------  -----------
heap                    0xa0008338         0x3e80       16000  Reserved for heap 
stack                   0xa000c1d0        0x13e28       81448  Reserved for stack 

        --------------------------------------------------------------------------

Discarded input sections

 .pdr           0x00000000       0xa0 c:/program files (x86)/microchip/xc32/v1.10/bin/../lib/gcc/pic32mx/4.5.1/../../../../pic32mx/lib/crt0.o
 .reginfo       0x00000000       0x18 build/XC32-PIC32_ETH_SK_ETH795/production/_ext/1472/BerkeleyTCPClientDemo.o
 .pdr           0x00000000       0x20 build/XC32-PIC32_ETH_SK_ETH795/production/_ext/1472/BerkeleyTCPClientDemo.o
 .reginfo       0x00000000       0x18 build/XC32-PIC32_ETH_SK_ETH795/production/_ext/1472/BerkeleyTCPServerDemo.o
 .pdr           0x00000000       0x20 build/XC32-PIC32_ETH_SK_ETH795/production/_ext/1472/BerkeleyTCPServerDemo.o
 .reginfo       0x00000000       0x18 build/XC32-PIC32_ETH_SK_ETH795/production/_ext/1472/BerkeleyUDPClientDemo.o
 .pdr           0x00000000       0x40 build/XC32-PIC32_ETH_SK_ETH795/production/_ext/1472/BerkeleyUDPClientDemo.o
 .reginfo       0x00000000       0x18 build/XC32-PIC32_ETH_SK_ETH795/production/_ext/1472/GenericTCPClient.o
 .pdr           0x00000000       0x20 build/XC32-PIC32_ETH_SK_ETH795/production/_ext/1472/GenericTCPClient.o
 .reginfo       0x00000000       0x18 build/XC32-PIC32_ETH_SK_ETH795/production/_ext/1472/GenericTCPServer.o
 .pdr           0x00000000       0x20 build/XC32-PIC32_ETH_SK_ETH795/production/_ext/1472/GenericTCPServer.o
 .reginfo       0x00000000       0x18 build/XC32-PIC32_ETH_SK_ETH795/production/_ext/1472/PingDemo.o
 .pdr           0x00000000       0x20 build/XC32-PIC32_ETH_SK_ETH795/production/_ext/1472/PingDemo.o
 .reginfo       0x00000000       0x18 build/XC32-PIC32_ETH_SK_ETH795/production/_ext/1472/SMTPDemo.o
 .pdr           0x00000000        0x0 build/XC32-PIC32_ETH_SK_ETH795/production/_ext/1472/SMTPDemo.o
 .reginfo       0x00000000       0x18 build/XC32-PIC32_ETH_SK_ETH795/production/_ext/1472/UARTConfig.o
 .pdr           0x00000000        0x0 build/XC32-PIC32_ETH_SK_ETH795/production/_ext/1472/UARTConfig.o
 .reginfo       0x00000000       0x18 build/XC32-PIC32_ETH_SK_ETH795/production/_ext/1954962658/ARCFOUR.o
 .pdr           0x00000000        0x0 build/XC32-PIC32_ETH_SK_ETH795/production/_ext/1954962658/ARCFOUR.o
 .reginfo       0x00000000       0x18 build/XC32-PIC32_ETH_SK_ETH795/production/_ext/1954962658/ARP.o
 .pdr           0x00000000       0xe0 build/XC32-PIC32_ETH_SK_ETH795/production/_ext/1954962658/ARP.o
 .reginfo       0x00000000       0x18 build/XC32-PIC32_ETH_SK_ETH795/production/_ext/1954962658/Announce.o
 .pdr           0x00000000        0x0 build/XC32-PIC32_ETH_SK_ETH795/production/_ext/1954962658/Announce.o
 .reginfo       0x00000000       0x18 build/XC32-PIC32_ETH_SK_ETH795/production/_ext/1954962658/AutoIP.o
 .pdr           0x00000000      0x140 build/XC32-PIC32_ETH_SK_ETH795/production/_ext/1954962658/AutoIP.o
 .reginfo       0x00000000       0x18 build/XC32-PIC32_ETH_SK_ETH795/production/_ext/1954962658/BerkeleyAPI.o
 .pdr           0x00000000      0x1a0 build/XC32-PIC32_ETH_SK_ETH795/production/_ext/1954962658/BerkeleyAPI.o
 .reginfo       0x00000000       0x18 build/XC32-PIC32_ETH_SK_ETH795/production/_ext/1954962658/BigInt.o
 .pdr           0x00000000        0x0 build/XC32-PIC32_ETH_SK_ETH795/production/_ext/1954962658/BigInt.o
 .reginfo       0x00000000       0x18 build/XC32-PIC32_ETH_SK_ETH795/production/_ext/1954962658/BigInt_helper_PIC32.o
 .pdr           0x00000000        0x0 build/XC32-PIC32_ETH_SK_ETH795/production/_ext/1954962658/BigInt_helper_PIC32.o
 .reginfo       0x00000000       0x18 build/XC32-PIC32_ETH_SK_ETH795/production/_ext/1954962658/DHCP.o
 .pdr           0x00000000      0x160 build/XC32-PIC32_ETH_SK_ETH795/production/_ext/1954962658/DHCP.o
 .reginfo       0x00000000       0x18 build/XC32-PIC32_ETH_SK_ETH795/production/_ext/1954962658/DHCPs.o
 .pdr           0x00000000      0x1c0 build/XC32-PIC32_ETH_SK_ETH795/production/_ext/1954962658/DHCPs.o
 .reginfo       0x00000000       0x18 build/XC32-PIC32_ETH_SK_ETH795/production/_ext/1954962658/DNS.o
 .pdr           0x00000000       0xc0 build/XC32-PIC32_ETH_SK_ETH795/production/_ext/1954962658/DNS.o
 .reginfo       0x00000000       0x18 build/XC32-PIC32_ETH_SK_ETH795/production/_ext/1954962658/DNSs.o
 .pdr           0x00000000        0x0 build/XC32-PIC32_ETH_SK_ETH795/production/_ext/1954962658/DNSs.o
 .reginfo       0x00000000       0x18 build/XC32-PIC32_ETH_SK_ETH795/production/_ext/1954962658/Delay.o
 .pdr           0x00000000       0x40 build/XC32-PIC32_ETH_SK_ETH795/production/_ext/1954962658/Delay.o
 .reginfo       0x00000000       0x18 build/XC32-PIC32_ETH_SK_ETH795/production/_ext/1954962658/DynDNS.o
 .pdr           0x00000000        0x0 build/XC32-PIC32_ETH_SK_ETH795/production/_ext/1954962658/DynDNS.o
 .reginfo       0x00000000       0x18 build/XC32-PIC32_ETH_SK_ETH795/production/_ext/1954962658/ENC28J60.o
 .pdr           0x00000000        0x0 build/XC32-PIC32_ETH_SK_ETH795/production/_ext/1954962658/ENC28J60.o
 .reginfo       0x00000000       0x18 build/XC32-PIC32_ETH_SK_ETH795/production/_ext/1954962658/ENCX24J600.o
 .pdr           0x00000000        0x0 build/XC32-PIC32_ETH_SK_ETH795/production/_ext/1954962658/ENCX24J600.o
 .reginfo       0x00000000       0x18 build/XC32-PIC32_ETH_SK_ETH795/production/_ext/1954962658/ETHPIC32ExtPhy.o
 .pdr           0x00000000      0x180 build/XC32-PIC32_ETH_SK_ETH795/production/_ext/1954962658/ETHPIC32ExtPhy.o
 .reginfo       0x00000000       0x18 build/XC32-PIC32_ETH_SK_ETH795/production/_ext/1954962658/ETHPIC32ExtPhyDP83848.o
 .pdr           0x00000000       0x80 build/XC32-PIC32_ETH_SK_ETH795/production/_ext/1954962658/ETHPIC32ExtPhyDP83848.o
 .reginfo       0x00000000       0x18 build/XC32-PIC32_ETH_SK_ETH795/production/_ext/1954962658/ETHPIC32IntMac.o
 .pdr           0x00000000      0x320 build/XC32-PIC32_ETH_SK_ETH795/production/_ext/1954962658/ETHPIC32IntMac.o
 .reginfo       0x00000000       0x18 build/XC32-PIC32_ETH_SK_ETH795/production/_ext/1954962658/FTP.o
 .pdr           0x00000000        0x0 build/XC32-PIC32_ETH_SK_ETH795/production/_ext/1954962658/FTP.o
 .reginfo       0x00000000       0x18 build/XC32-PIC32_ETH_SK_ETH795/production/_ext/1954962658/FileSystem.o
 .pdr           0x00000000        0x0 build/XC32-PIC32_ETH_SK_ETH795/production/_ext/1954962658/FileSystem.o
 .reginfo       0x00000000       0x18 build/XC32-PIC32_ETH_SK_ETH795/production/_ext/1954962658/HTTP2.o
 .pdr           0x00000000        0x0 build/XC32-PIC32_ETH_SK_ETH795/production/_ext/1954962658/HTTP2.o
 .reginfo       0x00000000       0x18 build/XC32-PIC32_ETH_SK_ETH795/production/_ext/1954962658/Hashes.o
 .pdr           0x00000000        0x0 build/XC32-PIC32_ETH_SK_ETH795/production/_ext/1954962658/Hashes.o
 .reginfo       0x00000000       0x18 build/XC32-PIC32_ETH_SK_ETH795/production/_ext/1954962658/Helpers.o
 .pdr           0x00000000      0x200 build/XC32-PIC32_ETH_SK_ETH795/production/_ext/1954962658/Helpers.o
 .reginfo       0x00000000       0x18 build/XC32-PIC32_ETH_SK_ETH795/production/_ext/1954962658/ICMP.o
 .pdr           0x00000000       0xc0 build/XC32-PIC32_ETH_SK_ETH795/production/_ext/1954962658/ICMP.o
 .reginfo       0x00000000       0x18 build/XC32-PIC32_ETH_SK_ETH795/production/_ext/1954962658/IP.o
 .pdr           0x00000000       0x80 build/XC32-PIC32_ETH_SK_ETH795/production/_ext/1954962658/IP.o
 .reginfo       0x00000000       0x18 build/XC32-PIC32_ETH_SK_ETH795/production/_ext/1954962658/LCDBlocking.o
 .pdr           0x00000000        0x0 build/XC32-PIC32_ETH_SK_ETH795/production/_ext/1954962658/LCDBlocking.o
 .reginfo       0x00000000       0x18 build/XC32-PIC32_ETH_SK_ETH795/production/_ext/1954962658/MPFS2.o
 .pdr           0x00000000        0x0 build/XC32-PIC32_ETH_SK_ETH795/production/_ext/1954962658/MPFS2.o
 .reginfo       0x00000000       0x18 build/XC32-PIC32_ETH_SK_ETH795/production/_ext/1472/MPFSImg2.o
 .pdr           0x00000000        0x0 build/XC32-PIC32_ETH_SK_ETH795/production/_ext/1472/MPFSImg2.o
 .reginfo       0x00000000       0x18 build/XC32-PIC32_ETH_SK_ETH795/production/_ext/1954962658/NBNS.o
 .pdr           0x00000000        0x0 build/XC32-PIC32_ETH_SK_ETH795/production/_ext/1954962658/NBNS.o
 .reginfo       0x00000000       0x18 build/XC32-PIC32_ETH_SK_ETH795/production/_ext/1954962658/RSA.o
 .pdr           0x00000000        0x0 build/XC32-PIC32_ETH_SK_ETH795/production/_ext/1954962658/RSA.o
 .reginfo       0x00000000       0x18 build/XC32-PIC32_ETH_SK_ETH795/production/_ext/1954962658/Random.o
 .pdr           0x00000000        0x0 build/XC32-PIC32_ETH_SK_ETH795/production/_ext/1954962658/Random.o
 .reginfo       0x00000000       0x18 build/XC32-PIC32_ETH_SK_ETH795/production/_ext/1954962658/Reboot.o
 .pdr           0x00000000        0x0 build/XC32-PIC32_ETH_SK_ETH795/production/_ext/1954962658/Reboot.o
 .reginfo       0x00000000       0x18 build/XC32-PIC32_ETH_SK_ETH795/production/_ext/1954962658/SMTP.o
 .pdr           0x00000000        0x0 build/XC32-PIC32_ETH_SK_ETH795/production/_ext/1954962658/SMTP.o
 .reginfo       0x00000000       0x18 build/XC32-PIC32_ETH_SK_ETH795/production/_ext/1954962658/SNMP.o
 .pdr           0x00000000        0x0 build/XC32-PIC32_ETH_SK_ETH795/production/_ext/1954962658/SNMP.o
 .reginfo       0x00000000       0x18 build/XC32-PIC32_ETH_SK_ETH795/production/_ext/1954962658/SNMPv3.o
 .pdr           0x00000000        0x0 build/XC32-PIC32_ETH_SK_ETH795/production/_ext/1954962658/SNMPv3.o
 .reginfo       0x00000000       0x18 build/XC32-PIC32_ETH_SK_ETH795/production/_ext/1954962658/SNMPv3USM.o
 .pdr           0x00000000        0x0 build/XC32-PIC32_ETH_SK_ETH795/production/_ext/1954962658/SNMPv3USM.o
 .reginfo       0x00000000       0x18 build/XC32-PIC32_ETH_SK_ETH795/production/_ext/1954962658/SNTP.o
 .pdr           0x00000000        0x0 build/XC32-PIC32_ETH_SK_ETH795/production/_ext/1954962658/SNTP.o
 .reginfo       0x00000000       0x18 build/XC32-PIC32_ETH_SK_ETH795/production/_ext/1954962658/SPIEEPROM.o
 .pdr           0x00000000        0x0 build/XC32-PIC32_ETH_SK_ETH795/production/_ext/1954962658/SPIEEPROM.o
 .reginfo       0x00000000       0x18 build/XC32-PIC32_ETH_SK_ETH795/production/_ext/1954962658/SPIFlash.o
 .pdr           0x00000000        0x0 build/XC32-PIC32_ETH_SK_ETH795/production/_ext/1954962658/SPIFlash.o
 .reginfo       0x00000000       0x18 build/XC32-PIC32_ETH_SK_ETH795/production/_ext/1954962658/SPIRAM.o
 .pdr           0x00000000        0x0 build/XC32-PIC32_ETH_SK_ETH795/production/_ext/1954962658/SPIRAM.o
 .reginfo       0x00000000       0x18 build/XC32-PIC32_ETH_SK_ETH795/production/_ext/1954962658/SSL.o
 .pdr           0x00000000        0x0 build/XC32-PIC32_ETH_SK_ETH795/production/_ext/1954962658/SSL.o
 .reginfo       0x00000000       0x18 build/XC32-PIC32_ETH_SK_ETH795/production/_ext/1954962658/StackTsk.o
 .pdr           0x00000000       0x60 build/XC32-PIC32_ETH_SK_ETH795/production/_ext/1954962658/StackTsk.o
 .reginfo       0x00000000       0x18 build/XC32-PIC32_ETH_SK_ETH795/production/_ext/1954962658/TCP.o
 .pdr           0x00000000      0x420 build/XC32-PIC32_ETH_SK_ETH795/production/_ext/1954962658/TCP.o
 .reginfo       0x00000000       0x18 build/XC32-PIC32_ETH_SK_ETH795/production/_ext/1954962658/TCPPerformanceTest.o
 .pdr           0x00000000        0x0 build/XC32-PIC32_ETH_SK_ETH795/production/_ext/1954962658/TCPPerformanceTest.o
 .reginfo       0x00000000       0x18 build/XC32-PIC32_ETH_SK_ETH795/production/_ext/1954962658/TFTPc.o
 .pdr           0x00000000        0x0 build/XC32-PIC32_ETH_SK_ETH795/production/_ext/1954962658/TFTPc.o
 .reginfo       0x00000000       0x18 build/XC32-PIC32_ETH_SK_ETH795/production/_ext/1954962658/Telnet.o
 .pdr           0x00000000        0x0 build/XC32-PIC32_ETH_SK_ETH795/production/_ext/1954962658/Telnet.o
 .reginfo       0x00000000       0x18 build/XC32-PIC32_ETH_SK_ETH795/production/_ext/1954962658/Tick.o
 .pdr           0x00000000      0x100 build/XC32-PIC32_ETH_SK_ETH795/production/_ext/1954962658/Tick.o
 .reginfo       0x00000000       0x18 build/XC32-PIC32_ETH_SK_ETH795/production/_ext/1954962658/UART.o
 .pdr           0x00000000        0x0 build/XC32-PIC32_ETH_SK_ETH795/production/_ext/1954962658/UART.o
 .reginfo       0x00000000       0x18 build/XC32-PIC32_ETH_SK_ETH795/production/_ext/1954962658/UART2TCPBridge.o
 .pdr           0x00000000        0x0 build/XC32-PIC32_ETH_SK_ETH795/production/_ext/1954962658/UART2TCPBridge.o
 .reginfo       0x00000000       0x18 build/XC32-PIC32_ETH_SK_ETH795/production/_ext/1954962658/UDP.o
 .pdr           0x00000000      0x240 build/XC32-PIC32_ETH_SK_ETH795/production/_ext/1954962658/UDP.o
 .reginfo       0x00000000       0x18 build/XC32-PIC32_ETH_SK_ETH795/production/_ext/1954962658/UDPPerformanceTest.o
 .pdr           0x00000000        0x0 build/XC32-PIC32_ETH_SK_ETH795/production/_ext/1954962658/UDPPerformanceTest.o
 .reginfo       0x00000000       0x18 build/XC32-PIC32_ETH_SK_ETH795/production/_ext/1954962658/ZeroconfHelper.o
 .pdr           0x00000000        0x0 build/XC32-PIC32_ETH_SK_ETH795/production/_ext/1954962658/ZeroconfHelper.o
 .reginfo       0x00000000       0x18 build/XC32-PIC32_ETH_SK_ETH795/production/_ext/1954962658/ZeroconfLinkLocal.o
 .pdr           0x00000000        0x0 build/XC32-PIC32_ETH_SK_ETH795/production/_ext/1954962658/ZeroconfLinkLocal.o
 .reginfo       0x00000000       0x18 build/XC32-PIC32_ETH_SK_ETH795/production/_ext/1954962658/ZeroconfMulticastDNS.o
 .pdr           0x00000000        0x0 build/XC32-PIC32_ETH_SK_ETH795/production/_ext/1954962658/ZeroconfMulticastDNS.o
 .reginfo       0x00000000       0x18 build/XC32-PIC32_ETH_SK_ETH795/production/_ext/243675038/WFDebugStrings.o
 .pdr           0x00000000        0x0 build/XC32-PIC32_ETH_SK_ETH795/production/_ext/243675038/WFDebugStrings.o
 .reginfo       0x00000000       0x18 build/XC32-PIC32_ETH_SK_ETH795/production/_ext/1472/CustomHTTPApp.o
 .pdr           0x00000000        0x0 build/XC32-PIC32_ETH_SK_ETH795/production/_ext/1472/CustomHTTPApp.o
 .reginfo       0x00000000       0x18 build/XC32-PIC32_ETH_SK_ETH795/production/_ext/1472/CustomSNMPApp.o
 .pdr           0x00000000        0x0 build/XC32-PIC32_ETH_SK_ETH795/production/_ext/1472/CustomSNMPApp.o
 .reginfo       0x00000000       0x18 build/XC32-PIC32_ETH_SK_ETH795/production/_ext/1472/CustomSSLCert.o
 .pdr           0x00000000        0x0 build/XC32-PIC32_ETH_SK_ETH795/production/_ext/1472/CustomSSLCert.o
 .reginfo       0x00000000       0x18 build/XC32-PIC32_ETH_SK_ETH795/production/_ext/1472/MainDemo.o
 .pdr           0x00000000       0xc0 build/XC32-PIC32_ETH_SK_ETH795/production/_ext/1472/MainDemo.o
 .reginfo       0x00000000       0x18 c:/program files (x86)/microchip/xc32/v1.10/bin/../lib/gcc/pic32mx/4.5.1/../../../../pic32mx/lib/./proc/32MX795F512L\processor.o
 .pdr           0x00000000        0x0 c:/program files (x86)/microchip/xc32/v1.10/bin/../lib/gcc/pic32mx/4.5.1/../../../../pic32mx/lib/./proc/32MX795F512L\processor.o
 .reginfo       0x00000000       0x18 c:/program files (x86)/microchip/xc32/v1.10/bin/../lib/gcc/pic32mx/4.5.1/../../../../pic32mx/lib\libmchp_peripheral.a(read_core_timer_lib.o)
 .pdr           0x00000000       0x20 c:/program files (x86)/microchip/xc32/v1.10/bin/../lib/gcc/pic32mx/4.5.1/../../../../pic32mx/lib\libmchp_peripheral.a(read_core_timer_lib.o)
 .reginfo       0x00000000       0x18 c:/program files (x86)/microchip/xc32/v1.10/bin/../lib/gcc/pic32mx/4.5.1/../../../../pic32mx/lib\libmchp_peripheral_32MX795F512L.a(eth_ack_packet_lib.o)
 .pdr           0x00000000       0xc0 c:/program files (x86)/microchip/xc32/v1.10/bin/../lib/gcc/pic32mx/4.5.1/../../../../pic32mx/lib\libmchp_peripheral_32MX795F512L.a(eth_ack_packet_lib.o)
 .reginfo       0x00000000       0x18 c:/program files (x86)/microchip/xc32/v1.10/bin/../lib/gcc/pic32mx/4.5.1/../../../../pic32mx/lib\libmchp_peripheral_32MX795F512L.a(eth_descriptors_add_lib.o)
 .pdr           0x00000000       0x40 c:/program files (x86)/microchip/xc32/v1.10/bin/../lib/gcc/pic32mx/4.5.1/../../../../pic32mx/lib\libmchp_peripheral_32MX795F512L.a(eth_descriptors_add_lib.o)
 .reginfo       0x00000000       0x18 c:/program files (x86)/microchip/xc32/v1.10/bin/../lib/gcc/pic32mx/4.5.1/../../../../pic32mx/lib\libmchp_peripheral_32MX795F512L.a(eth_init_lib.o)
 .pdr           0x00000000       0x20 c:/program files (x86)/microchip/xc32/v1.10/bin/../lib/gcc/pic32mx/4.5.1/../../../../pic32mx/lib\libmchp_peripheral_32MX795F512L.a(eth_init_lib.o)
 .reginfo       0x00000000       0x18 c:/program files (x86)/microchip/xc32/v1.10/bin/../lib/gcc/pic32mx/4.5.1/../../../../pic32mx/lib\libmchp_peripheral_32MX795F512L.a(eth_mac_open_lib.o)
 .pdr           0x00000000       0x20 c:/program files (x86)/microchip/xc32/v1.10/bin/../lib/gcc/pic32mx/4.5.1/../../../../pic32mx/lib\libmchp_peripheral_32MX795F512L.a(eth_mac_open_lib.o)
 .reginfo       0x00000000       0x18 c:/program files (x86)/microchip/xc32/v1.10/bin/../lib/gcc/pic32mx/4.5.1/../../../../pic32mx/lib\libmchp_peripheral_32MX795F512L.a(eth_mac_set_address_max_lib.o)
 .pdr           0x00000000       0x60 c:/program files (x86)/microchip/xc32/v1.10/bin/../lib/gcc/pic32mx/4.5.1/../../../../pic32mx/lib\libmchp_peripheral_32MX795F512L.a(eth_mac_set_address_max_lib.o)
 .reginfo       0x00000000       0x18 c:/program files (x86)/microchip/xc32/v1.10/bin/../lib/gcc/pic32mx/4.5.1/../../../../pic32mx/lib\libmchp_peripheral_32MX795F512L.a(eth_rx_buffers_append_lib.o)
 .pdr           0x00000000       0x20 c:/program files (x86)/microchip/xc32/v1.10/bin/../lib/gcc/pic32mx/4.5.1/../../../../pic32mx/lib\libmchp_peripheral_32MX795F512L.a(eth_rx_buffers_append_lib.o)
 .reginfo       0x00000000       0x18 c:/program files (x86)/microchip/xc32/v1.10/bin/../lib/gcc/pic32mx/4.5.1/../../../../pic32mx/lib\libmchp_peripheral_32MX795F512L.a(eth_rx_filters_lib.o)
 .pdr           0x00000000       0xc0 c:/program files (x86)/microchip/xc32/v1.10/bin/../lib/gcc/pic32mx/4.5.1/../../../../pic32mx/lib\libmchp_peripheral_32MX795F512L.a(eth_rx_filters_lib.o)
 .reginfo       0x00000000       0x18 c:/program files (x86)/microchip/xc32/v1.10/bin/../lib/gcc/pic32mx/4.5.1/../../../../pic32mx/lib\libmchp_peripheral_32MX795F512L.a(eth_rx_get_packet_lib.o)
 .pdr           0x00000000       0x40 c:/program files (x86)/microchip/xc32/v1.10/bin/../lib/gcc/pic32mx/4.5.1/../../../../pic32mx/lib\libmchp_peripheral_32MX795F512L.a(eth_rx_get_packet_lib.o)
 .reginfo       0x00000000       0x18 c:/program files (x86)/microchip/xc32/v1.10/bin/../lib/gcc/pic32mx/4.5.1/../../../../pic32mx/lib\libmchp_peripheral_32MX795F512L.a(eth_rx_set_buffer_size_lib.o)
 .pdr           0x00000000       0x20 c:/program files (x86)/microchip/xc32/v1.10/bin/../lib/gcc/pic32mx/4.5.1/../../../../pic32mx/lib\libmchp_peripheral_32MX795F512L.a(eth_rx_set_buffer_size_lib.o)
 .reginfo       0x00000000       0x18 c:/program files (x86)/microchip/xc32/v1.10/bin/../lib/gcc/pic32mx/4.5.1/../../../../pic32mx/lib\libmchp_peripheral_32MX795F512L.a(eth_tx_packet_lib.o)
 .pdr           0x00000000       0xc0 c:/program files (x86)/microchip/xc32/v1.10/bin/../lib/gcc/pic32mx/4.5.1/../../../../pic32mx/lib\libmchp_peripheral_32MX795F512L.a(eth_tx_packet_lib.o)
 .reginfo       0x00000000       0x18 c:/program files (x86)/microchip/xc32/v1.10/bin/../lib/gcc/pic32mx/4.5.1/../../../../pic32mx/lib\libmchp_peripheral_32MX795F512L.a(_eth_append_busy_list_lib.o)
 .pdr           0x00000000       0x20 c:/program files (x86)/microchip/xc32/v1.10/bin/../lib/gcc/pic32mx/4.5.1/../../../../pic32mx/lib\libmchp_peripheral_32MX795F512L.a(_eth_append_busy_list_lib.o)
 .reginfo       0x00000000       0x18 c:/program files (x86)/microchip/xc32/v1.10/bin/../lib/gcc/pic32mx/4.5.1/../../../../pic32mx/lib\libmchp_peripheral_32MX795F512L.a(eth_miim_access.o)
 .pdr           0x00000000       0xc0 c:/program files (x86)/microchip/xc32/v1.10/bin/../lib/gcc/pic32mx/4.5.1/../../../../pic32mx/lib\libmchp_peripheral_32MX795F512L.a(eth_miim_access.o)
 .reginfo       0x00000000       0x18 c:/program files (x86)/microchip/xc32/v1.10/bin/../lib/gcc/pic32mx/4.5.1/../../../../pic32mx/lib\libmchp_peripheral_32MX795F512L.a(pcache.o)
 .pdr           0x00000000       0x40 c:/program files (x86)/microchip/xc32/v1.10/bin/../lib/gcc/pic32mx/4.5.1/../../../../pic32mx/lib\libmchp_peripheral_32MX795F512L.a(pcache.o)
 .reginfo       0x00000000       0x18 c:/program files (x86)/microchip/xc32/v1.10/bin/../lib/gcc/pic32mx/4.5.1/../../../../pic32mx/lib\libmchp_peripheral_32MX795F512L.a(int_disable_interrupts_lib.o)
 .pdr           0x00000000       0x20 c:/program files (x86)/microchip/xc32/v1.10/bin/../lib/gcc/pic32mx/4.5.1/../../../../pic32mx/lib\libmchp_peripheral_32MX795F512L.a(int_disable_interrupts_lib.o)
 .reginfo       0x00000000       0x18 c:/program files (x86)/microchip/xc32/v1.10/bin/../lib/gcc/pic32mx/4.5.1/../../../../pic32mx/lib\libmchp_peripheral_32MX795F512L.a(int_restore_interrupts_lib.o)
 .pdr           0x00000000       0x20 c:/program files (x86)/microchip/xc32/v1.10/bin/../lib/gcc/pic32mx/4.5.1/../../../../pic32mx/lib\libmchp_peripheral_32MX795F512L.a(int_restore_interrupts_lib.o)
 .reginfo       0x00000000       0x18 c:/program files (x86)/microchip/xc32/v1.10/bin/../lib/gcc/pic32mx/4.5.1/../../../../pic32mx/lib\libmchp_peripheral_32MX795F512L.a(int_enable_mv_int_lib.o)
 .pdr           0x00000000       0x20 c:/program files (x86)/microchip/xc32/v1.10/bin/../lib/gcc/pic32mx/4.5.1/../../../../pic32mx/lib\libmchp_peripheral_32MX795F512L.a(int_enable_mv_int_lib.o)
 .reginfo       0x00000000       0x18 c:/program files (x86)/microchip/xc32/v1.10/bin/../lib/gcc/pic32mx/4.5.1/../../../../pic32mx/lib\libmchp_peripheral_32MX795F512L.a(int_tbl_lib.o)
 .pdr           0x00000000      0x120 c:/program files (x86)/microchip/xc32/v1.10/bin/../lib/gcc/pic32mx/4.5.1/../../../../pic32mx/lib\libmchp_peripheral_32MX795F512L.a(int_tbl_lib.o)
 .reginfo       0x00000000       0x18 c:/program files (x86)/microchip/xc32/v1.10/bin/../lib/gcc/pic32mx/4.5.1/../../../../pic32mx/lib\libmchp_peripheral_32MX795F512L.a(port_set_pins_digital_in_lib.o)
 .pdr           0x00000000       0x20 c:/program files (x86)/microchip/xc32/v1.10/bin/../lib/gcc/pic32mx/4.5.1/../../../../pic32mx/lib\libmchp_peripheral_32MX795F512L.a(port_set_pins_digital_in_lib.o)
 .reginfo       0x00000000       0x18 c:/program files (x86)/microchip/xc32/v1.10/bin/../lib/gcc/pic32mx/4.5.1/../../../../pic32mx/lib\libmchp_peripheral_32MX795F512L.a(port_set_pins_digital_out_lib.o)
 .pdr           0x00000000       0x20 c:/program files (x86)/microchip/xc32/v1.10/bin/../lib/gcc/pic32mx/4.5.1/../../../../pic32mx/lib\libmchp_peripheral_32MX795F512L.a(port_set_pins_digital_out_lib.o)
 .reginfo       0x00000000       0x18 c:/program files (x86)/microchip/xc32/v1.10/bin/../lib/gcc/pic32mx/4.5.1/../../../../pic32mx/lib\libmchp_peripheral_32MX795F512L.a(_ports_tbl_libp.o)
 .pdr           0x00000000        0x0 c:/program files (x86)/microchip/xc32/v1.10/bin/../lib/gcc/pic32mx/4.5.1/../../../../pic32mx/lib\libmchp_peripheral_32MX795F512L.a(_ports_tbl_libp.o)
 .reginfo       0x00000000       0x18 c:/program files (x86)/microchip/xc32/v1.10/bin/../lib/gcc/pic32mx/4.5.1/../../../../pic32mx/lib\libmchp_peripheral_32MX795F512L.a(int_enable_interrupts_lib.o)
 .pdr           0x00000000       0x20 c:/program files (x86)/microchip/xc32/v1.10/bin/../lib/gcc/pic32mx/4.5.1/../../../../pic32mx/lib\libmchp_peripheral_32MX795F512L.a(int_enable_interrupts_lib.o)
 .reginfo       0x00000000       0x18 c:/program files (x86)/microchip/xc32/v1.10/bin/../lib/gcc/pic32mx/4.5.1\libgcc.a(_udivdi3.o)
 .pdr           0x00000000       0x20 c:/program files (x86)/microchip/xc32/v1.10/bin/../lib/gcc/pic32mx/4.5.1\libgcc.a(_udivdi3.o)
 .reginfo       0x00000000       0x18 c:/program files (x86)/microchip/xc32/v1.10/bin/../lib/gcc/pic32mx/4.5.1\libgcc.a(_umoddi3.o)
 .pdr           0x00000000       0x20 c:/program files (x86)/microchip/xc32/v1.10/bin/../lib/gcc/pic32mx/4.5.1\libgcc.a(_umoddi3.o)
 .reginfo       0x00000000       0x18 c:/program files (x86)/microchip/xc32/v1.10/bin/../lib/gcc/pic32mx/4.5.1/../../../../pic32mx/lib\libpic32.a(memcmp.o)
 .pdr           0x00000000       0x20 c:/program files (x86)/microchip/xc32/v1.10/bin/../lib/gcc/pic32mx/4.5.1/../../../../pic32mx/lib\libpic32.a(memcmp.o)
 .reginfo       0x00000000       0x18 c:/program files (x86)/microchip/xc32/v1.10/bin/../lib/gcc/pic32mx/4.5.1/../../../../pic32mx/lib\libpic32.a(memcpy.o)
 .pdr           0x00000000       0x20 c:/program files (x86)/microchip/xc32/v1.10/bin/../lib/gcc/pic32mx/4.5.1/../../../../pic32mx/lib\libpic32.a(memcpy.o)
 .reginfo       0x00000000       0x18 c:/program files (x86)/microchip/xc32/v1.10/bin/../lib/gcc/pic32mx/4.5.1/../../../../pic32mx/lib\libpic32.a(memset.o)
 .pdr           0x00000000       0x20 c:/program files (x86)/microchip/xc32/v1.10/bin/../lib/gcc/pic32mx/4.5.1/../../../../pic32mx/lib\libpic32.a(memset.o)
 .reginfo       0x00000000       0x18 c:/program files (x86)/microchip/xc32/v1.10/bin/../lib/gcc/pic32mx/4.5.1/../../../../pic32mx/lib\libpic32.a(strlen.o)
 .pdr           0x00000000       0x20 c:/program files (x86)/microchip/xc32/v1.10/bin/../lib/gcc/pic32mx/4.5.1/../../../../pic32mx/lib\libpic32.a(strlen.o)
 .reginfo       0x00000000       0x18 c:/program files (x86)/microchip/xc32/v1.10/bin/../lib/gcc/pic32mx/4.5.1/../../../../pic32mx/lib\libpic32.a(default-bootstrap-exception-handler.o)
 .pdr           0x00000000       0x20 c:/program files (x86)/microchip/xc32/v1.10/bin/../lib/gcc/pic32mx/4.5.1/../../../../pic32mx/lib\libpic32.a(default-bootstrap-exception-handler.o)
 .reginfo       0x00000000       0x18 c:/program files (x86)/microchip/xc32/v1.10/bin/../lib/gcc/pic32mx/4.5.1/../../../../pic32mx/lib\libpic32.a(default-on-reset.o)
 .pdr           0x00000000       0x20 c:/program files (x86)/microchip/xc32/v1.10/bin/../lib/gcc/pic32mx/4.5.1/../../../../pic32mx/lib\libpic32.a(default-on-reset.o)
 .reginfo       0x00000000       0x18 c:/program files (x86)/microchip/xc32/v1.10/bin/../lib/gcc/pic32mx/4.5.1/../../../../pic32mx/lib\libpic32.a(default-on-bootstrap.o)
 .pdr           0x00000000       0x20 c:/program files (x86)/microchip/xc32/v1.10/bin/../lib/gcc/pic32mx/4.5.1/../../../../pic32mx/lib\libpic32.a(default-on-bootstrap.o)
 .reginfo       0x00000000       0x18 c:/program files (x86)/microchip/xc32/v1.10/bin/../lib/gcc/pic32mx/4.5.1/../../../../pic32mx/lib\libpic32.a(default-nmi-handler.o)
 .pdr           0x00000000       0x20 c:/program files (x86)/microchip/xc32/v1.10/bin/../lib/gcc/pic32mx/4.5.1/../../../../pic32mx/lib\libpic32.a(default-nmi-handler.o)
 .reginfo       0x00000000       0x18 c:/program files (x86)/microchip/xc32/v1.10/bin/../lib/gcc/pic32mx/4.5.1/../../../../pic32mx/lib\libpic32.a(general-exception.o)
 .pdr           0x00000000       0x20 c:/program files (x86)/microchip/xc32/v1.10/bin/../lib/gcc/pic32mx/4.5.1/../../../../pic32mx/lib\libpic32.a(general-exception.o)
 .reginfo       0x00000000       0x18 c:/program files (x86)/microchip/xc32/v1.10/bin/../lib/gcc/pic32mx/4.5.1/../../../../pic32mx/lib\libc.a(calloc.o)
 .pdr           0x00000000       0x20 c:/program files (x86)/microchip/xc32/v1.10/bin/../lib/gcc/pic32mx/4.5.1/../../../../pic32mx/lib\libc.a(calloc.o)
 .reginfo       0x00000000       0x18 c:/program files (x86)/microchip/xc32/v1.10/bin/../lib/gcc/pic32mx/4.5.1/../../../../pic32mx/lib\libc.a(malloc.o)
 .pdr           0x00000000       0x60 c:/program files (x86)/microchip/xc32/v1.10/bin/../lib/gcc/pic32mx/4.5.1/../../../../pic32mx/lib\libc.a(malloc.o)
 .reginfo       0x00000000       0x18 c:/program files (x86)/microchip/xc32/v1.10/bin/../lib/gcc/pic32mx/4.5.1/../../../../pic32mx/lib\libc.a(strncpy.o)
 .pdr           0x00000000       0x20 c:/program files (x86)/microchip/xc32/v1.10/bin/../lib/gcc/pic32mx/4.5.1/../../../../pic32mx/lib\libc.a(strncpy.o)
 .reginfo       0x00000000       0x18 c:/program files (x86)/microchip/xc32/v1.10/bin/../lib/gcc/pic32mx/4.5.1/../../../../pic32mx/lib\libpic32.a(sbrk.o)
 .pdr           0x00000000       0xa0 c:/program files (x86)/microchip/xc32/v1.10/bin/../lib/gcc/pic32mx/4.5.1/../../../../pic32mx/lib\libpic32.a(sbrk.o)
 .reginfo       0x00000000       0x18 c:/program files (x86)/microchip/xc32/v1.10/bin/../lib/gcc/pic32mx/4.5.1/../../../../pic32mx/lib\libpic32.a(errno.o)
 .pdr           0x00000000        0x0 c:/program files (x86)/microchip/xc32/v1.10/bin/../lib/gcc/pic32mx/4.5.1/../../../../pic32mx/lib\libpic32.a(errno.o)

Memory Configuration

Name             Origin             Length             Attributes
kseg0_program_mem 0x9d000000         0x00080000         xr
kseg0_boot_mem   0x9fc00490         0x00000970
exception_mem    0x9fc01000         0x00001000
kseg1_boot_mem   0xbfc00000         0x00000490
debug_exec_mem   0xbfc02000         0x00000ff0
config3          0xbfc02ff0         0x00000004
config2          0xbfc02ff4         0x00000004
config1          0xbfc02ff8         0x00000004
config0          0xbfc02ffc         0x00000004
kseg1_data_mem   0xa0000000         0x00020000         w !x
sfrs             0xbf800000         0x00100000
configsfrs       0xbfc02ff0         0x00000010
*default*        0x00000000         0xffffffff

Linker script and memory map

LOAD c:/program files (x86)/microchip/xc32/v1.10/bin/../lib/gcc/pic32mx/4.5.1/../../../../pic32mx/lib/crt0.o
LOAD build/XC32-PIC32_ETH_SK_ETH795/production/_ext/1472/BerkeleyTCPClientDemo.o
LOAD build/XC32-PIC32_ETH_SK_ETH795/production/_ext/1472/BerkeleyTCPServerDemo.o
LOAD build/XC32-PIC32_ETH_SK_ETH795/production/_ext/1472/BerkeleyUDPClientDemo.o
LOAD build/XC32-PIC32_ETH_SK_ETH795/production/_ext/1472/GenericTCPClient.o
LOAD build/XC32-PIC32_ETH_SK_ETH795/production/_ext/1472/GenericTCPServer.o
LOAD build/XC32-PIC32_ETH_SK_ETH795/production/_ext/1472/PingDemo.o
LOAD build/XC32-PIC32_ETH_SK_ETH795/production/_ext/1472/SMTPDemo.o
LOAD build/XC32-PIC32_ETH_SK_ETH795/production/_ext/1472/UARTConfig.o
LOAD build/XC32-PIC32_ETH_SK_ETH795/production/_ext/1954962658/ARCFOUR.o
LOAD build/XC32-PIC32_ETH_SK_ETH795/production/_ext/1954962658/ARP.o
LOAD build/XC32-PIC32_ETH_SK_ETH795/production/_ext/1954962658/Announce.o
LOAD build/XC32-PIC32_ETH_SK_ETH795/production/_ext/1954962658/AutoIP.o
LOAD build/XC32-PIC32_ETH_SK_ETH795/production/_ext/1954962658/BerkeleyAPI.o
LOAD build/XC32-PIC32_ETH_SK_ETH795/production/_ext/1954962658/BigInt.o
LOAD build/XC32-PIC32_ETH_SK_ETH795/production/_ext/1954962658/BigInt_helper_PIC32.o
LOAD build/XC32-PIC32_ETH_SK_ETH795/production/_ext/1954962658/DHCP.o
LOAD build/XC32-PIC32_ETH_SK_ETH795/production/_ext/1954962658/DHCPs.o
LOAD build/XC32-PIC32_ETH_SK_ETH795/production/_ext/1954962658/DNS.o
LOAD build/XC32-PIC32_ETH_SK_ETH795/production/_ext/1954962658/DNSs.o
LOAD build/XC32-PIC32_ETH_SK_ETH795/production/_ext/1954962658/Delay.o
LOAD build/XC32-PIC32_ETH_SK_ETH795/production/_ext/1954962658/DynDNS.o
LOAD build/XC32-PIC32_ETH_SK_ETH795/production/_ext/1954962658/ENC28J60.o
LOAD build/XC32-PIC32_ETH_SK_ETH795/production/_ext/1954962658/ENCX24J600.o
LOAD build/XC32-PIC32_ETH_SK_ETH795/production/_ext/1954962658/ETHPIC32ExtPhy.o
LOAD build/XC32-PIC32_ETH_SK_ETH795/production/_ext/1954962658/ETHPIC32ExtPhyDP83848.o
LOAD build/XC32-PIC32_ETH_SK_ETH795/production/_ext/1954962658/ETHPIC32IntMac.o
LOAD build/XC32-PIC32_ETH_SK_ETH795/production/_ext/1954962658/FTP.o
LOAD build/XC32-PIC32_ETH_SK_ETH795/production/_ext/1954962658/FileSystem.o
LOAD build/XC32-PIC32_ETH_SK_ETH795/production/_ext/1954962658/HTTP2.o
LOAD build/XC32-PIC32_ETH_SK_ETH795/production/_ext/1954962658/Hashes.o
LOAD build/XC32-PIC32_ETH_SK_ETH795/production/_ext/1954962658/Helpers.o
LOAD build/XC32-PIC32_ETH_SK_ETH795/production/_ext/1954962658/ICMP.o
LOAD build/XC32-PIC32_ETH_SK_ETH795/production/_ext/1954962658/IP.o
LOAD build/XC32-PIC32_ETH_SK_ETH795/production/_ext/1954962658/LCDBlocking.o
LOAD build/XC32-PIC32_ETH_SK_ETH795/production/_ext/1954962658/MPFS2.o
LOAD build/XC32-PIC32_ETH_SK_ETH795/production/_ext/1472/MPFSImg2.o
LOAD build/XC32-PIC32_ETH_SK_ETH795/production/_ext/1954962658/NBNS.o
LOAD build/XC32-PIC32_ETH_SK_ETH795/production/_ext/1954962658/RSA.o
LOAD build/XC32-PIC32_ETH_SK_ETH795/production/_ext/1954962658/Random.o
LOAD build/XC32-PIC32_ETH_SK_ETH795/production/_ext/1954962658/Reboot.o
LOAD build/XC32-PIC32_ETH_SK_ETH795/production/_ext/1954962658/SMTP.o
LOAD build/XC32-PIC32_ETH_SK_ETH795/production/_ext/1954962658/SNMP.o
LOAD build/XC32-PIC32_ETH_SK_ETH795/production/_ext/1954962658/SNMPv3.o
LOAD build/XC32-PIC32_ETH_SK_ETH795/production/_ext/1954962658/SNMPv3USM.o
LOAD build/XC32-PIC32_ETH_SK_ETH795/production/_ext/1954962658/SNTP.o
LOAD build/XC32-PIC32_ETH_SK_ETH795/production/_ext/1954962658/SPIEEPROM.o
LOAD build/XC32-PIC32_ETH_SK_ETH795/production/_ext/1954962658/SPIFlash.o
LOAD build/XC32-PIC32_ETH_SK_ETH795/production/_ext/1954962658/SPIRAM.o
LOAD build/XC32-PIC32_ETH_SK_ETH795/production/_ext/1954962658/SSL.o
LOAD build/XC32-PIC32_ETH_SK_ETH795/production/_ext/1954962658/StackTsk.o
LOAD build/XC32-PIC32_ETH_SK_ETH795/production/_ext/1954962658/TCP.o
LOAD build/XC32-PIC32_ETH_SK_ETH795/production/_ext/1954962658/TCPPerformanceTest.o
LOAD build/XC32-PIC32_ETH_SK_ETH795/production/_ext/1954962658/TFTPc.o
LOAD build/XC32-PIC32_ETH_SK_ETH795/production/_ext/1954962658/Telnet.o
LOAD build/XC32-PIC32_ETH_SK_ETH795/production/_ext/1954962658/Tick.o
LOAD build/XC32-PIC32_ETH_SK_ETH795/production/_ext/1954962658/UART.o
LOAD build/XC32-PIC32_ETH_SK_ETH795/production/_ext/1954962658/UART2TCPBridge.o
LOAD build/XC32-PIC32_ETH_SK_ETH795/production/_ext/1954962658/UDP.o
LOAD build/XC32-PIC32_ETH_SK_ETH795/production/_ext/1954962658/UDPPerformanceTest.o
LOAD build/XC32-PIC32_ETH_SK_ETH795/production/_ext/1954962658/ZeroconfHelper.o
LOAD build/XC32-PIC32_ETH_SK_ETH795/production/_ext/1954962658/ZeroconfLinkLocal.o
LOAD build/XC32-PIC32_ETH_SK_ETH795/production/_ext/1954962658/ZeroconfMulticastDNS.o
LOAD build/XC32-PIC32_ETH_SK_ETH795/production/_ext/243675038/WFDebugStrings.o
LOAD build/XC32-PIC32_ETH_SK_ETH795/production/_ext/1472/CustomHTTPApp.o
LOAD build/XC32-PIC32_ETH_SK_ETH795/production/_ext/1472/CustomSNMPApp.o
LOAD build/XC32-PIC32_ETH_SK_ETH795/production/_ext/1472/CustomSSLCert.o
LOAD build/XC32-PIC32_ETH_SK_ETH795/production/_ext/1472/MainDemo.o
                0x00000001                __MPLAB_BUILD = 0x1
                0x00003e80                _min_heap_size = 0x3e80
                0x00000800                _min_stack_size = 0x800
                0x00000400                PROVIDE (_min_stack_size, 0x400)
LOAD c:/program files (x86)/microchip/xc32/v1.10/bin/../lib/gcc/pic32mx/4.5.1/../../../../pic32mx/lib/./proc/32MX795F512L\processor.o
START GROUP
LOAD c:/program files (x86)/microchip/xc32/v1.10/bin/../lib/gcc/pic32mx/4.5.1/../../../../pic32mx/lib\libmchp_peripheral.a
END GROUP
START GROUP
LOAD c:/program files (x86)/microchip/xc32/v1.10/bin/../lib/gcc/pic32mx/4.5.1/../../../../pic32mx/lib\libmchp_peripheral_32MX795F512L.a
END GROUP
                0x00000001                PROVIDE (_vector_spacing, 0x1)
                0x9fc01000                _ebase_address = 0x9fc01000
                0xbfc00000                _RESET_ADDR = 0xbfc00000
                0xbfc00380                _BEV_EXCPT_ADDR = 0xbfc00380
                0xbfc00480                _DBG_EXCPT_ADDR = 0xbfc00480
                0xbfc02000                _DBG_CODE_ADDR = 0xbfc02000
                0x00000ff0                _DBG_CODE_SIZE = 0xff0
                0x9fc01180                _GEN_EXCPT_ADDR = (_ebase_address + 0x180)

.config_BFC02FF0
                0xbfc02ff0        0x4
 *(.config_BFC02FF0)
 .config_BFC02FF0
                0xbfc02ff0        0x4 build/XC32-PIC32_ETH_SK_ETH795/production/_ext/1472/MainDemo.o

.config_BFC02FF4
                0xbfc02ff4        0x4
 *(.config_BFC02FF4)
 .config_BFC02FF4
                0xbfc02ff4        0x4 build/XC32-PIC32_ETH_SK_ETH795/production/_ext/1472/MainDemo.o

.config_BFC02FF8
                0xbfc02ff8        0x4
 *(.config_BFC02FF8)
 .config_BFC02FF8
                0xbfc02ff8        0x4 build/XC32-PIC32_ETH_SK_ETH795/production/_ext/1472/MainDemo.o

.config_BFC02FFC
                0xbfc02ffc        0x4
 *(.config_BFC02FFC)
 .config_BFC02FFC
                0xbfc02ffc        0x4 build/XC32-PIC32_ETH_SK_ETH795/production/_ext/1472/MainDemo.o
                0xbfc02000                PROVIDE (_DBG_CODE_ADDR, 0xbfc02000)
                0x00000ff0                PROVIDE (_DBG_CODE_SIZE, 0xff0)

.reset          0xbfc00000      0x1f4
 *(.reset)
 .reset         0xbfc00000       0x10 c:/program files (x86)/microchip/xc32/v1.10/bin/../lib/gcc/pic32mx/4.5.1/../../../../pic32mx/lib/crt0.o
                0xbfc00000                _reset
 *(.reset.startup)
 .reset.startup
                0xbfc00010      0x1e4 c:/program files (x86)/microchip/xc32/v1.10/bin/../lib/gcc/pic32mx/4.5.1/../../../../pic32mx/lib/crt0.o

.bev_excpt      0xbfc00380       0x10
 *(.bev_handler)
 .bev_handler   0xbfc00380       0x10 c:/program files (x86)/microchip/xc32/v1.10/bin/../lib/gcc/pic32mx/4.5.1/../../../../pic32mx/lib/crt0.o

.dbg_excpt      0xbfc00480        0x0
                0xbfc00480                . = (. + DEFINED (_DEBUGGER)?0x8:0x0)

.dbg_code       0xbfc02000        0x0
                0xbfc02000                . = (. + DEFINED (_DEBUGGER)?_DBG_CODE_SIZE:0x0)

.app_excpt      0x9fc01180       0x10
 *(.gen_handler)
 .gen_handler   0x9fc01180       0x10 c:/program files (x86)/microchip/xc32/v1.10/bin/../lib/gcc/pic32mx/4.5.1/../../../../pic32mx/lib/crt0.o

.vector_0       0x9fc01200        0x0
 *(.vector_0)
                0x00000001                ASSERT (((_vector_spacing == 0x0) || (SIZEOF (.vector_0) <= (_vector_spacing << 0x5))), function at exception vector 0 too large)

.vector_1       0x9fc01220        0x0
 *(.vector_1)
                0x00000001                ASSERT (((_vector_spacing == 0x0) || (SIZEOF (.vector_1) <= (_vector_spacing << 0x5))), function at exception vector 1 too large)

.vector_2       0x9fc01240        0x0
 *(.vector_2)
                0x00000001                ASSERT (((_vector_spacing == 0x0) || (SIZEOF (.vector_2) <= (_vector_spacing << 0x5))), function at exception vector 2 too large)

.vector_3       0x9fc01260        0x0
 *(.vector_3)
                0x00000001                ASSERT (((_vector_spacing == 0x0) || (SIZEOF (.vector_3) <= (_vector_spacing << 0x5))), function at exception vector 3 too large)

.vector_4       0x9fc01280        0x8
 *(.vector_4)
 .vector_4      0x9fc01280        0x8 build/XC32-PIC32_ETH_SK_ETH795/production/_ext/1954962658/Tick.o
                0x00000001                ASSERT (((_vector_spacing == 0x0) || (SIZEOF (.vector_4) <= (_vector_spacing << 0x5))), function at exception vector 4 too large)

.vector_5       0x9fc012a0        0x0
 *(.vector_5)
                0x00000001                ASSERT (((_vector_spacing == 0x0) || (SIZEOF (.vector_5) <= (_vector_spacing << 0x5))), function at exception vector 5 too large)

.vector_6       0x9fc012c0        0x0
 *(.vector_6)
                0x00000001                ASSERT (((_vector_spacing == 0x0) || (SIZEOF (.vector_6) <= (_vector_spacing << 0x5))), function at exception vector 6 too large)

.vector_7       0x9fc012e0        0x0
 *(.vector_7)
                0x00000001                ASSERT (((_vector_spacing == 0x0) || (SIZEOF (.vector_7) <= (_vector_spacing << 0x5))), function at exception vector 7 too large)

.vector_8       0x9fc01300        0x0
 *(.vector_8)
                0x00000001                ASSERT (((_vector_spacing == 0x0) || (SIZEOF (.vector_8) <= (_vector_spacing << 0x5))), function at exception vector 8 too large)

.vector_9       0x9fc01320        0x0
 *(.vector_9)
                0x00000001                ASSERT (((_vector_spacing == 0x0) || (SIZEOF (.vector_9) <= (_vector_spacing << 0x5))), function at exception vector 9 too large)

.vector_10      0x9fc01340        0x0
 *(.vector_10)
                0x00000001                ASSERT (((_vector_spacing == 0x0) || (SIZEOF (.vector_10) <= (_vector_spacing << 0x5))), function at exception vector 10 too large)

.vector_11      0x9fc01360        0x0
 *(.vector_11)
                0x00000001                ASSERT (((_vector_spacing == 0x0) || (SIZEOF (.vector_11) <= (_vector_spacing << 0x5))), function at exception vector 11 too large)

.vector_12      0x9fc01380        0x0
 *(.vector_12)
                0x00000001                ASSERT (((_vector_spacing == 0x0) || (SIZEOF (.vector_12) <= (_vector_spacing << 0x5))), function at exception vector 12 too large)

.vector_13      0x9fc013a0        0x0
 *(.vector_13)
                0x00000001                ASSERT (((_vector_spacing == 0x0) || (SIZEOF (.vector_13) <= (_vector_spacing << 0x5))), function at exception vector 13 too large)

.vector_14      0x9fc013c0        0x0
 *(.vector_14)
                0x00000001                ASSERT (((_vector_spacing == 0x0) || (SIZEOF (.vector_14) <= (_vector_spacing << 0x5))), function at exception vector 14 too large)

.vector_15      0x9fc013e0        0x0
 *(.vector_15)
                0x00000001                ASSERT (((_vector_spacing == 0x0) || (SIZEOF (.vector_15) <= (_vector_spacing << 0x5))), function at exception vector 15 too large)

.vector_16      0x9fc01400        0x0
 *(.vector_16)
                0x00000001                ASSERT (((_vector_spacing == 0x0) || (SIZEOF (.vector_16) <= (_vector_spacing << 0x5))), function at exception vector 16 too large)

.vector_17      0x9fc01420        0x0
 *(.vector_17)
                0x00000001                ASSERT (((_vector_spacing == 0x0) || (SIZEOF (.vector_17) <= (_vector_spacing << 0x5))), function at exception vector 17 too large)

.vector_18      0x9fc01440        0x0
 *(.vector_18)
                0x00000001                ASSERT (((_vector_spacing == 0x0) || (SIZEOF (.vector_18) <= (_vector_spacing << 0x5))), function at exception vector 18 too large)

.vector_19      0x9fc01460        0x0
 *(.vector_19)
                0x00000001                ASSERT (((_vector_spacing == 0x0) || (SIZEOF (.vector_19) <= (_vector_spacing << 0x5))), function at exception vector 19 too large)

.vector_20      0x9fc01480        0x0
 *(.vector_20)
                0x00000001                ASSERT (((_vector_spacing == 0x0) || (SIZEOF (.vector_20) <= (_vector_spacing << 0x5))), function at exception vector 20 too large)

.vector_21      0x9fc014a0        0x0
 *(.vector_21)
                0x00000001                ASSERT (((_vector_spacing == 0x0) || (SIZEOF (.vector_21) <= (_vector_spacing << 0x5))), function at exception vector 21 too large)

.vector_22      0x9fc014c0        0x0
 *(.vector_22)
                0x00000001                ASSERT (((_vector_spacing == 0x0) || (SIZEOF (.vector_22) <= (_vector_spacing << 0x5))), function at exception vector 22 too large)

.vector_23      0x9fc014e0        0x0
 *(.vector_23)
                0x00000001                ASSERT (((_vector_spacing == 0x0) || (SIZEOF (.vector_23) <= (_vector_spacing << 0x5))), function at exception vector 23 too large)

.vector_24      0x9fc01500        0x0
 *(.vector_24)
                0x00000001                ASSERT (((_vector_spacing == 0x0) || (SIZEOF (.vector_24) <= (_vector_spacing << 0x5))), function at exception vector 24 too large)

.vector_25      0x9fc01520        0x0
 *(.vector_25)
                0x00000001                ASSERT (((_vector_spacing == 0x0) || (SIZEOF (.vector_25) <= (_vector_spacing << 0x5))), function at exception vector 25 too large)

.vector_26      0x9fc01540        0x0
 *(.vector_26)
                0x00000001                ASSERT (((_vector_spacing == 0x0) || (SIZEOF (.vector_26) <= (_vector_spacing << 0x5))), function at exception vector 26 too large)

.vector_27      0x9fc01560        0x0
 *(.vector_27)
                0x00000001                ASSERT (((_vector_spacing == 0x0) || (SIZEOF (.vector_27) <= (_vector_spacing << 0x5))), function at exception vector 27 too large)

.vector_28      0x9fc01580        0x0
 *(.vector_28)
                0x00000001                ASSERT (((_vector_spacing == 0x0) || (SIZEOF (.vector_28) <= (_vector_spacing << 0x5))), function at exception vector 28 too large)

.vector_29      0x9fc015a0        0x0
 *(.vector_29)
                0x00000001                ASSERT (((_vector_spacing == 0x0) || (SIZEOF (.vector_29) <= (_vector_spacing << 0x5))), function at exception vector 29 too large)

.vector_30      0x9fc015c0        0x0
 *(.vector_30)
                0x00000001                ASSERT (((_vector_spacing == 0x0) || (SIZEOF (.vector_30) <= (_vector_spacing << 0x5))), function at exception vector 30 too large)

.vector_31      0x9fc015e0        0x0
 *(.vector_31)
                0x00000001                ASSERT (((_vector_spacing == 0x0) || (SIZEOF (.vector_31) <= (_vector_spacing << 0x5))), function at exception vector 31 too large)

.vector_32      0x9fc01600        0x0
 *(.vector_32)
                0x00000001                ASSERT (((_vector_spacing == 0x0) || (SIZEOF (.vector_32) <= (_vector_spacing << 0x5))), function at exception vector 32 too large)

.vector_33      0x9fc01620        0x0
 *(.vector_33)
                0x00000001                ASSERT (((_vector_spacing == 0x0) || (SIZEOF (.vector_33) <= (_vector_spacing << 0x5))), function at exception vector 33 too large)

.vector_34      0x9fc01640        0x0
 *(.vector_34)
                0x00000001                ASSERT (((_vector_spacing == 0x0) || (SIZEOF (.vector_34) <= (_vector_spacing << 0x5))), function at exception vector 34 too large)

.vector_35      0x9fc01660        0x0
 *(.vector_35)
                0x00000001                ASSERT (((_vector_spacing == 0x0) || (SIZEOF (.vector_35) <= (_vector_spacing << 0x5))), function at exception vector 35 too large)

.vector_36      0x9fc01680        0x0
 *(.vector_36)
                0x00000001                ASSERT (((_vector_spacing == 0x0) || (SIZEOF (.vector_36) <= (_vector_spacing << 0x5))), function at exception vector 36 too large)

.vector_37      0x9fc016a0        0x0
 *(.vector_37)
                0x00000001                ASSERT (((_vector_spacing == 0x0) || (SIZEOF (.vector_37) <= (_vector_spacing << 0x5))), function at exception vector 37 too large)

.vector_38      0x9fc016c0        0x0
 *(.vector_38)
                0x00000001                ASSERT (((_vector_spacing == 0x0) || (SIZEOF (.vector_38) <= (_vector_spacing << 0x5))), function at exception vector 38 too large)

.vector_39      0x9fc016e0        0x0
 *(.vector_39)
                0x00000001                ASSERT (((_vector_spacing == 0x0) || (SIZEOF (.vector_39) <= (_vector_spacing << 0x5))), function at exception vector 39 too large)

.vector_40      0x9fc01700        0x0
 *(.vector_40)
                0x00000001                ASSERT (((_vector_spacing == 0x0) || (SIZEOF (.vector_40) <= (_vector_spacing << 0x5))), function at exception vector 40 too large)

.vector_41      0x9fc01720        0x0
 *(.vector_41)
                0x00000001                ASSERT (((_vector_spacing == 0x0) || (SIZEOF (.vector_41) <= (_vector_spacing << 0x5))), function at exception vector 41 too large)

.vector_42      0x9fc01740        0x0
 *(.vector_42)
                0x00000001                ASSERT (((_vector_spacing == 0x0) || (SIZEOF (.vector_42) <= (_vector_spacing << 0x5))), function at exception vector 42 too large)

.vector_43      0x9fc01760        0x0
 *(.vector_43)
                0x00000001                ASSERT (((_vector_spacing == 0x0) || (SIZEOF (.vector_43) <= (_vector_spacing << 0x5))), function at exception vector 43 too large)

.vector_44      0x9fc01780        0x0
 *(.vector_44)
                0x00000001                ASSERT (((_vector_spacing == 0x0) || (SIZEOF (.vector_44) <= (_vector_spacing << 0x5))), function at exception vector 44 too large)

.vector_45      0x9fc017a0        0x0
 *(.vector_45)
                0x00000001                ASSERT (((_vector_spacing == 0x0) || (SIZEOF (.vector_45) <= (_vector_spacing << 0x5))), function at exception vector 45 too large)

.vector_46      0x9fc017c0        0x0
 *(.vector_46)
                0x00000001                ASSERT (((_vector_spacing == 0x0) || (SIZEOF (.vector_46) <= (_vector_spacing << 0x5))), function at exception vector 46 too large)

.vector_47      0x9fc017e0        0x0
 *(.vector_47)
                0x00000001                ASSERT (((_vector_spacing == 0x0) || (SIZEOF (.vector_47) <= (_vector_spacing << 0x5))), function at exception vector 47 too large)

.vector_48      0x9fc01800        0x0
 *(.vector_48)
                0x00000001                ASSERT (((_vector_spacing == 0x0) || (SIZEOF (.vector_48) <= (_vector_spacing << 0x5))), function at exception vector 48 too large)

.vector_49      0x9fc01820        0x0
 *(.vector_49)
                0x00000001                ASSERT (((_vector_spacing == 0x0) || (SIZEOF (.vector_49) <= (_vector_spacing << 0x5))), function at exception vector 49 too large)

.vector_50      0x9fc01840        0x0
 *(.vector_50)
                0x00000001                ASSERT (((_vector_spacing == 0x0) || (SIZEOF (.vector_50) <= (_vector_spacing << 0x5))), function at exception vector 50 too large)

.vector_51      0x9fc01860        0x0
 *(.vector_51)
                0x00000001                ASSERT (((_vector_spacing == 0x0) || (SIZEOF (.vector_51) <= (_vector_spacing << 0x5))), function at exception vector 51 too large)

.vector_52      0x9fc01880        0x0
 *(.vector_52)
                0x00000001                ASSERT (((_vector_spacing == 0x0) || (SIZEOF (.vector_52) <= (_vector_spacing << 0x5))), function at exception vector 52 too large)

.vector_53      0x9fc018a0        0x0
 *(.vector_53)
                0x00000001                ASSERT (((_vector_spacing == 0x0) || (SIZEOF (.vector_53) <= (_vector_spacing << 0x5))), function at exception vector 53 too large)

.vector_54      0x9fc018c0        0x0
 *(.vector_54)
                0x00000001                ASSERT (((_vector_spacing == 0x0) || (SIZEOF (.vector_54) <= (_vector_spacing << 0x5))), function at exception vector 54 too large)

.vector_55      0x9fc018e0        0x0
 *(.vector_55)
                0x00000001                ASSERT (((_vector_spacing == 0x0) || (SIZEOF (.vector_55) <= (_vector_spacing << 0x5))), function at exception vector 55 too large)

.vector_56      0x9fc01900        0x0
 *(.vector_56)
                0x00000001                ASSERT (((_vector_spacing == 0x0) || (SIZEOF (.vector_56) <= (_vector_spacing << 0x5))), function at exception vector 56 too large)

.vector_57      0x9fc01920        0x0
 *(.vector_57)
                0x00000001                ASSERT (((_vector_spacing == 0x0) || (SIZEOF (.vector_57) <= (_vector_spacing << 0x5))), function at exception vector 57 too large)

.vector_58      0x9fc01940        0x0
 *(.vector_58)
                0x00000001                ASSERT (((_vector_spacing == 0x0) || (SIZEOF (.vector_58) <= (_vector_spacing << 0x5))), function at exception vector 58 too large)

.vector_59      0x9fc01960        0x0
 *(.vector_59)
                0x00000001                ASSERT (((_vector_spacing == 0x0) || (SIZEOF (.vector_59) <= (_vector_spacing << 0x5))), function at exception vector 59 too large)

.vector_60      0x9fc01980        0x0
 *(.vector_60)
                0x00000001                ASSERT (((_vector_spacing == 0x0) || (SIZEOF (.vector_60) <= (_vector_spacing << 0x5))), function at exception vector 60 too large)

.vector_61      0x9fc019a0        0x0
 *(.vector_61)
                0x00000001                ASSERT (((_vector_spacing == 0x0) || (SIZEOF (.vector_61) <= (_vector_spacing << 0x5))), function at exception vector 61 too large)

.vector_62      0x9fc019c0        0x0
 *(.vector_62)
                0x00000001                ASSERT (((_vector_spacing == 0x0) || (SIZEOF (.vector_62) <= (_vector_spacing << 0x5))), function at exception vector 62 too large)

.vector_63      0x9fc019e0        0x0
 *(.vector_63)
                0x00000001                ASSERT (((_vector_spacing == 0x0) || (SIZEOF (.vector_63) <= (_vector_spacing << 0x5))), function at exception vector 63 too large)

.startup
 *(.startup)

.text           0x9d000000        0x0
 *(.stub .gnu.linkonce.t.*)
 *(.text.*personality*)
 *(.mips16.fn.*)
 *(.mips16.call.*)
 *(.gnu.warning)
                0x9d000000                . = ALIGN (0x4)

.init           0x9d000000        0x0
 *crti.o(.init)
 *crtbegin.o(.init)
 *(EXCLUDE_FILE(*crtn.o *crtend?.o *crtend.o) .init)
 *crtend.o(.init)
 *crtn.o(.init)
                0x9d000000                . = ALIGN (0x4)

.fini           0x9d000000        0x0
 *(.fini)
                0x9d000000                . = ALIGN (0x4)

.preinit_array  0x9d000000        0x0
                0x9d000000                PROVIDE (__preinit_array_start, .)
 *(.preinit_array)
                0x9d000000                PROVIDE (__preinit_array_end, .)
                0x9d000000                . = ALIGN (0x4)

.init_array     0x9d000000        0x0
                0x9d000000                PROVIDE (__init_array_start, .)
 *(SORT(.init_array.*))
 *(.init_array)
                0x9d000000                PROVIDE (__init_array_end, .)
                0x9d000000                . = ALIGN (0x4)

.fini_array     0x9d000000        0x0
                0x9d000000                PROVIDE (__fini_array_start, .)
 *(SORT(.fini_array.*))
 *(.fini_array)
                0x9d000000                PROVIDE (__fini_array_end, .)
                0x9d000000                . = ALIGN (0x4)

.ctors          0x9d000000        0x0
 *crtbegin.o(.ctors)
 *crtbegin?.o(.ctors)
 *(EXCLUDE_FILE(*crtend?.o *crtend.o) .ctors)
 *(SORT(.ctors.*))
 *(.ctors)
                0x9d000000                . = ALIGN (0x4)

.dtors          0x9d000000        0x0
 *crtbegin.o(.dtors)
 *crtbegin?.o(.dtors)
 *(EXCLUDE_FILE(*crtend?.o *crtend.o) .dtors)
 *(SORT(.dtors.*))
 *(.dtors)
                0x9d000000                . = ALIGN (0x4)

.rodata         0x9d000000        0x0
 *(.gnu.linkonce.r.*)
 *(.rodata1)
                0x9d000000                . = ALIGN (0x4)

.sdata2         0x9fc00490        0x0
 *(.sdata2 .sdata2.* .gnu.linkonce.s2.*)
                0x9fc00490                . = ALIGN (0x4)

.sbss2          0x9fc00490        0x0
 *(.sbss2 .sbss2.* .gnu.linkonce.sb2.*)
                0x9fc00490                . = ALIGN (0x4)

.eh_frame_hdr
 *(.eh_frame_hdr)
                0x9fc00490                . = ALIGN (0x4)

.eh_frame
 *(.eh_frame)
                0x9fc00490                . = ALIGN (0x4)

.gcc_except_table
 *(.gcc_except_table .gcc_except_table.*)
                0x9fc00490                . = ALIGN (0x4)

.dbg_data       0xa0000000        0x0
                0xa0000000                . = (. + DEFINED (_DEBUGGER)?0x200:0x0)

.jcr            0xa0000000        0x0
 *(.jcr)
                0xa0000000                . = ALIGN (0x4)

.eh_frame       0xa0000000       0x30
 *(.eh_frame)
 .eh_frame      0xa0000000       0x20 c:/program files (x86)/microchip/xc32/v1.10/bin/../lib/gcc/pic32mx/4.5.1\libgcc.a(_udivdi3.o)
 .eh_frame      0xa0000020       0x10 c:/program files (x86)/microchip/xc32/v1.10/bin/../lib/gcc/pic32mx/4.5.1\libgcc.a(_umoddi3.o)
                0xa0000030                . = ALIGN (0x4)

.gcc_except_table
 *(.gcc_except_table .gcc_except_table.*)
                0xa0000030                . = ALIGN (0x4)

.persist        0xa0000030        0x8
                0xa0000030                _persist_begin = .
 *(.persist .persist.*)
 *(.pbss .pbss.*)
 .pbss          0xa0000030        0x4 build/XC32-PIC32_ETH_SK_ETH795/production/_ext/1954962658/DNS.o
 .pbss          0xa0000034        0x2 build/XC32-PIC32_ETH_SK_ETH795/production/_ext/1954962658/TCP.o
 .pbss          0xa0000036        0x2 build/XC32-PIC32_ETH_SK_ETH795/production/_ext/1954962658/UDP.o
                0xa0000038                . = ALIGN (0x4)
                0xa0000038                _persist_end = .

.data           0xa0000038        0x0
 *(.gnu.linkonce.d.*)
 *(.data1)
                0xa0000038                . = ALIGN (0x4)
                0xa0000038                . = .
                0xa0008030                _gp = (ALIGN (0x10) + 0x7ff0)

.got            0xa0000038        0x0
 *(.got.plt)
 *(.got)
                0xa0000038                . = ALIGN (0x4)

.sdata          0xa0000038       0x30
                0xa0000038                _sdata_begin = .
 *(.sdata .sdata.* .gnu.linkonce.s.*)
 .sdata         0xa0000038        0x4 build/XC32-PIC32_ETH_SK_ETH795/production/_ext/1472/BerkeleyTCPClientDemo.o
 .sdata         0xa000003c        0xc build/XC32-PIC32_ETH_SK_ETH795/production/_ext/1472/GenericTCPClient.o
 .sdata         0xa0000048        0x2 build/XC32-PIC32_ETH_SK_ETH795/production/_ext/1954962658/BerkeleyAPI.o
 *fill*         0xa000004a        0x2 00
 .sdata         0xa000004c        0xc build/XC32-PIC32_ETH_SK_ETH795/production/_ext/1954962658/DHCPs.o
                0xa0000050                bDHCPServerEnabled
 .sdata         0xa0000058        0x8 build/XC32-PIC32_ETH_SK_ETH795/production/_ext/1954962658/DNS.o
 .sdata         0xa0000060        0x4 build/XC32-PIC32_ETH_SK_ETH795/production/_ext/1954962658/Helpers.o
 .sdata         0xa0000064        0x2 build/XC32-PIC32_ETH_SK_ETH795/production/_ext/1954962658/TCP.o
 .sdata         0xa0000066        0x2 build/XC32-PIC32_ETH_SK_ETH795/production/_ext/1954962658/UDP.o
                0xa0000068                . = ALIGN (0x4)
                0xa0000068                _sdata_end = .

.lit8
 *(.lit8)

.lit4
 *(.lit4)
                0xa0000068                . = ALIGN (0x4)
                0xa0000068                _data_end = .
                0xa0000068                _bss_begin = .

.sbss           0xa0000068      0x13c
                0xa0000068                _sbss_begin = .
 *(.dynsbss)
 *(.sbss .sbss.* .gnu.linkonce.sb.*)
 .sbss          0xa0000068        0x1 build/XC32-PIC32_ETH_SK_ETH795/production/_ext/1472/BerkeleyTCPClientDemo.o
 *fill*         0xa0000069        0x3 00
 .sbss          0xa000006c        0x8 build/XC32-PIC32_ETH_SK_ETH795/production/_ext/1472/BerkeleyTCPServerDemo.o
 .sbss          0xa0000074       0x18 build/XC32-PIC32_ETH_SK_ETH795/production/_ext/1472/BerkeleyUDPClientDemo.o
 .sbss          0xa000008c        0x4 build/XC32-PIC32_ETH_SK_ETH795/production/_ext/1472/GenericTCPClient.o
 .sbss          0xa0000090        0x8 build/XC32-PIC32_ETH_SK_ETH795/production/_ext/1472/GenericTCPServer.o
 .sbss          0xa0000098        0x8 build/XC32-PIC32_ETH_SK_ETH795/production/_ext/1472/PingDemo.o
 .sbss          0xa00000a0        0x4 build/XC32-PIC32_ETH_SK_ETH795/production/_ext/1954962658/ARP.o
 .sbss          0xa00000a4        0x4 build/XC32-PIC32_ETH_SK_ETH795/production/_ext/1954962658/BerkeleyAPI.o
 .sbss          0xa00000a8        0x4 build/XC32-PIC32_ETH_SK_ETH795/production/_ext/1954962658/DHCP.o
                0xa00000a8                DHCPClientInitializedOnce
 .sbss          0xa00000ac        0xc build/XC32-PIC32_ETH_SK_ETH795/production/_ext/1954962658/DHCPs.o
 .sbss          0xa00000b8       0x14 build/XC32-PIC32_ETH_SK_ETH795/production/_ext/1954962658/DNS.o
 .sbss          0xa00000cc       0x40 build/XC32-PIC32_ETH_SK_ETH795/production/_ext/1954962658/ETHPIC32IntMac.o
                0xa00000f8                _stackMgrRxOkPkts
                0xa00000fc                _stackMgrRxBadPkts
                0xa0000100                _stackMgrInGetHdr
                0xa0000104                _stackMgrRxDiscarded
                0xa0000108                _stackMgrTxNotReady
 .sbss          0xa000010c       0x10 build/XC32-PIC32_ETH_SK_ETH795/production/_ext/1954962658/ICMP.o
 .sbss          0xa000011c        0x4 build/XC32-PIC32_ETH_SK_ETH795/production/_ext/1954962658/IP.o
 .sbss          0xa0000120        0xc build/XC32-PIC32_ETH_SK_ETH795/production/_ext/1954962658/StackTsk.o
 *fill*         0xa000012c        0x4 00
 .sbss          0xa0000130       0x10 build/XC32-PIC32_ETH_SK_ETH795/production/_ext/1954962658/Tick.o
 .sbss          0xa0000140        0x8 build/XC32-PIC32_ETH_SK_ETH795/production/_ext/1954962658/UDP.o
 .sbss          0xa0000148        0xc build/XC32-PIC32_ETH_SK_ETH795/production/_ext/1472/MainDemo.o
 .sbss          0xa0000154       0x20 c:/program files (x86)/microchip/xc32/v1.10/bin/../lib/gcc/pic32mx/4.5.1/../../../../pic32mx/lib\libmchp_peripheral_32MX795F512L.a(eth_descriptors_add_lib.o)
                0xa0000154                _EthTxFreeList
                0xa000015c                _EthTxBusyList
                0xa0000164                _EthRxFreeList
                0xa000016c                _EthRxBusyList
 .sbss          0xa0000174       0x10 c:/program files (x86)/microchip/xc32/v1.10/bin/../lib/gcc/pic32mx/4.5.1/../../../../pic32mx/lib\libc.a(malloc.o)
                0xa0000174                __allocp
                0xa0000178                __alloct
                0xa000017c                __allocx
 .sbss          0xa0000184        0x8 c:/program files (x86)/microchip/xc32/v1.10/bin/../lib/gcc/pic32mx/4.5.1/../../../../pic32mx/lib\libpic32.a(sbrk.o)
                0xa0000184                _minbrk
                0xa0000188                _maxbrk
 .sbss          0xa000018c        0x4 c:/program files (x86)/microchip/xc32/v1.10/bin/../lib/gcc/pic32mx/4.5.1/../../../../pic32mx/lib\libpic32.a(errno.o)
                0xa000018c                errno
 *(.scommon)
 .scommon       0xa0000190        0x4 build/XC32-PIC32_ETH_SK_ETH795/production/_ext/1954962658/ETHPIC32ExtPhy.o
                0xa0000190                _PhyAdd
 .scommon       0xa0000194        0x6 build/XC32-PIC32_ETH_SK_ETH795/production/_ext/1954962658/UDP.o
                0xa0000194                activeUDPSocket
                0xa0000196                UDPTxCount
                0xa0000198                UDPRxCount
 *fill*         0xa000019a        0x2 00
 .scommon       0xa000019c        0x8 build/XC32-PIC32_ETH_SK_ETH795/production/_ext/1472/MainDemo.o
                0xa000019c                AN0String
                0xa00001a4                _sbss_end = .
                0xa00001a4                . = ALIGN (0x4)

.bss            0xa00001a4      0x198
 *(.dynbss)
 *(COMMON)
 COMMON         0xa00001a4       0x78 build/XC32-PIC32_ETH_SK_ETH795/production/_ext/1954962658/DHCPs.o
                0xa00001a4                DhcpIpPool
 COMMON         0xa000021c        0xa build/XC32-PIC32_ETH_SK_ETH795/production/_ext/1954962658/StackTsk.o
                0xa000021c                remoteNode
 *fill*         0xa0000226        0x2 00
 COMMON         0xa0000228       0xe0 build/XC32-PIC32_ETH_SK_ETH795/production/_ext/1954962658/UDP.o
                0xa0000228                UDPSocketInfo
 COMMON         0xa0000308       0x33 build/XC32-PIC32_ETH_SK_ETH795/production/_ext/1472/MainDemo.o
                0xa0000308                AppConfig
                0xa000033c                . = ALIGN ((. != 0x0)?0x4:0x1)
 *fill*         0xa000033b        0x1 00
                0xa000033c                . = ALIGN (0x4)
                0xa000033c                _end = .
                0xa000033c                _bss_end = .
                0x00020000                _bmxdudba_address = 0x20000
                0x00020000                _bmxdupba_address = 0x20000

/DISCARD/
 *(.pdr)
 *(.rel.dyn)
 *(.note.GNU-stack)
 *(.note.GNU-stack)
 *(.gnu_debuglink)
 *(.gnu.lto_*)
 *(.discard)

.gptab.sdata
 *(.gptab.data)
 *(.gptab.sdata)

.gptab.sbss
 *(.gptab.bss)
 *(.gptab.sbss)

.mdebug.abi32   0xa000033c        0x0
 *(.mdebug.abi32)
 .mdebug.abi32  0xa000033c        0x0 build/XC32-PIC32_ETH_SK_ETH795/production/_ext/1472/BerkeleyTCPClientDemo.o
 .mdebug.abi32  0xa000033c        0x0 build/XC32-PIC32_ETH_SK_ETH795/production/_ext/1472/BerkeleyTCPServerDemo.o
 .mdebug.abi32  0xa000033c        0x0 build/XC32-PIC32_ETH_SK_ETH795/production/_ext/1472/BerkeleyUDPClientDemo.o
 .mdebug.abi32  0xa000033c        0x0 build/XC32-PIC32_ETH_SK_ETH795/production/_ext/1472/GenericTCPClient.o
 .mdebug.abi32  0xa000033c        0x0 build/XC32-PIC32_ETH_SK_ETH795/production/_ext/1472/GenericTCPServer.o
 .mdebug.abi32  0xa000033c        0x0 build/XC32-PIC32_ETH_SK_ETH795/production/_ext/1472/PingDemo.o
 .mdebug.abi32  0xa000033c        0x0 build/XC32-PIC32_ETH_SK_ETH795/production/_ext/1472/SMTPDemo.o
 .mdebug.abi32  0xa000033c        0x0 build/XC32-PIC32_ETH_SK_ETH795/production/_ext/1472/UARTConfig.o
 .mdebug.abi32  0xa000033c        0x0 build/XC32-PIC32_ETH_SK_ETH795/production/_ext/1954962658/ARCFOUR.o
 .mdebug.abi32  0xa000033c        0x0 build/XC32-PIC32_ETH_SK_ETH795/production/_ext/1954962658/ARP.o
 .mdebug.abi32  0xa000033c        0x0 build/XC32-PIC32_ETH_SK_ETH795/production/_ext/1954962658/Announce.o
 .mdebug.abi32  0xa000033c        0x0 build/XC32-PIC32_ETH_SK_ETH795/production/_ext/1954962658/AutoIP.o
 .mdebug.abi32  0xa000033c        0x0 build/XC32-PIC32_ETH_SK_ETH795/production/_ext/1954962658/BerkeleyAPI.o
 .mdebug.abi32  0xa000033c        0x0 build/XC32-PIC32_ETH_SK_ETH795/production/_ext/1954962658/BigInt.o
 .mdebug.abi32  0xa000033c        0x0 build/XC32-PIC32_ETH_SK_ETH795/production/_ext/1954962658/DHCP.o
 .mdebug.abi32  0xa000033c        0x0 build/XC32-PIC32_ETH_SK_ETH795/production/_ext/1954962658/DHCPs.o
 .mdebug.abi32  0xa000033c        0x0 build/XC32-PIC32_ETH_SK_ETH795/production/_ext/1954962658/DNS.o
 .mdebug.abi32  0xa000033c        0x0 build/XC32-PIC32_ETH_SK_ETH795/production/_ext/1954962658/DNSs.o
 .mdebug.abi32  0xa000033c        0x0 build/XC32-PIC32_ETH_SK_ETH795/production/_ext/1954962658/Delay.o
 .mdebug.abi32  0xa000033c        0x0 build/XC32-PIC32_ETH_SK_ETH795/production/_ext/1954962658/DynDNS.o
 .mdebug.abi32  0xa000033c        0x0 build/XC32-PIC32_ETH_SK_ETH795/production/_ext/1954962658/ENC28J60.o
 .mdebug.abi32  0xa000033c        0x0 build/XC32-PIC32_ETH_SK_ETH795/production/_ext/1954962658/ENCX24J600.o
 .mdebug.abi32  0xa000033c        0x0 build/XC32-PIC32_ETH_SK_ETH795/production/_ext/1954962658/ETHPIC32ExtPhy.o
 .mdebug.abi32  0xa000033c        0x0 build/XC32-PIC32_ETH_SK_ETH795/production/_ext/1954962658/ETHPIC32ExtPhyDP83848.o
 .mdebug.abi32  0xa000033c        0x0 build/XC32-PIC32_ETH_SK_ETH795/production/_ext/1954962658/ETHPIC32IntMac.o
 .mdebug.abi32  0xa000033c        0x0 build/XC32-PIC32_ETH_SK_ETH795/production/_ext/1954962658/FTP.o
 .mdebug.abi32  0xa000033c        0x0 build/XC32-PIC32_ETH_SK_ETH795/production/_ext/1954962658/FileSystem.o
 .mdebug.abi32  0xa000033c        0x0 build/XC32-PIC32_ETH_SK_ETH795/production/_ext/1954962658/HTTP2.o
 .mdebug.abi32  0xa000033c        0x0 build/XC32-PIC32_ETH_SK_ETH795/production/_ext/1954962658/Hashes.o
 .mdebug.abi32  0xa000033c        0x0 build/XC32-PIC32_ETH_SK_ETH795/production/_ext/1954962658/Helpers.o
 .mdebug.abi32  0xa000033c        0x0 build/XC32-PIC32_ETH_SK_ETH795/production/_ext/1954962658/ICMP.o
 .mdebug.abi32  0xa000033c        0x0 build/XC32-PIC32_ETH_SK_ETH795/production/_ext/1954962658/IP.o
 .mdebug.abi32  0xa000033c        0x0 build/XC32-PIC32_ETH_SK_ETH795/production/_ext/1954962658/LCDBlocking.o
 .mdebug.abi32  0xa000033c        0x0 build/XC32-PIC32_ETH_SK_ETH795/production/_ext/1954962658/MPFS2.o
 .mdebug.abi32  0xa000033c        0x0 build/XC32-PIC32_ETH_SK_ETH795/production/_ext/1472/MPFSImg2.o
 .mdebug.abi32  0xa000033c        0x0 build/XC32-PIC32_ETH_SK_ETH795/production/_ext/1954962658/NBNS.o
 .mdebug.abi32  0xa000033c        0x0 build/XC32-PIC32_ETH_SK_ETH795/production/_ext/1954962658/RSA.o
 .mdebug.abi32  0xa000033c        0x0 build/XC32-PIC32_ETH_SK_ETH795/production/_ext/1954962658/Random.o
 .mdebug.abi32  0xa000033c        0x0 build/XC32-PIC32_ETH_SK_ETH795/production/_ext/1954962658/Reboot.o
 .mdebug.abi32  0xa000033c        0x0 build/XC32-PIC32_ETH_SK_ETH795/production/_ext/1954962658/SMTP.o
 .mdebug.abi32  0xa000033c        0x0 build/XC32-PIC32_ETH_SK_ETH795/production/_ext/1954962658/SNMP.o
 .mdebug.abi32  0xa000033c        0x0 build/XC32-PIC32_ETH_SK_ETH795/production/_ext/1954962658/SNMPv3.o
 .mdebug.abi32  0xa000033c        0x0 build/XC32-PIC32_ETH_SK_ETH795/production/_ext/1954962658/SNMPv3USM.o
 .mdebug.abi32  0xa000033c        0x0 build/XC32-PIC32_ETH_SK_ETH795/production/_ext/1954962658/SNTP.o
 .mdebug.abi32  0xa000033c        0x0 build/XC32-PIC32_ETH_SK_ETH795/production/_ext/1954962658/SPIEEPROM.o
 .mdebug.abi32  0xa000033c        0x0 build/XC32-PIC32_ETH_SK_ETH795/production/_ext/1954962658/SPIFlash.o
 .mdebug.abi32  0xa000033c        0x0 build/XC32-PIC32_ETH_SK_ETH795/production/_ext/1954962658/SPIRAM.o
 .mdebug.abi32  0xa000033c        0x0 build/XC32-PIC32_ETH_SK_ETH795/production/_ext/1954962658/SSL.o
 .mdebug.abi32  0xa000033c        0x0 build/XC32-PIC32_ETH_SK_ETH795/production/_ext/1954962658/StackTsk.o
 .mdebug.abi32  0xa000033c        0x0 build/XC32-PIC32_ETH_SK_ETH795/production/_ext/1954962658/TCP.o
 .mdebug.abi32  0xa000033c        0x0 build/XC32-PIC32_ETH_SK_ETH795/production/_ext/1954962658/TCPPerformanceTest.o
 .mdebug.abi32  0xa000033c        0x0 build/XC32-PIC32_ETH_SK_ETH795/production/_ext/1954962658/TFTPc.o
 .mdebug.abi32  0xa000033c        0x0 build/XC32-PIC32_ETH_SK_ETH795/production/_ext/1954962658/Telnet.o
 .mdebug.abi32  0xa000033c        0x0 build/XC32-PIC32_ETH_SK_ETH795/production/_ext/1954962658/Tick.o
 .mdebug.abi32  0xa000033c        0x0 build/XC32-PIC32_ETH_SK_ETH795/production/_ext/1954962658/UART.o
 .mdebug.abi32  0xa000033c        0x0 build/XC32-PIC32_ETH_SK_ETH795/production/_ext/1954962658/UART2TCPBridge.o
 .mdebug.abi32  0xa000033c        0x0 build/XC32-PIC32_ETH_SK_ETH795/production/_ext/1954962658/UDP.o
 .mdebug.abi32  0xa000033c        0x0 build/XC32-PIC32_ETH_SK_ETH795/production/_ext/1954962658/UDPPerformanceTest.o
 .mdebug.abi32  0xa000033c        0x0 build/XC32-PIC32_ETH_SK_ETH795/production/_ext/1954962658/ZeroconfHelper.o
 .mdebug.abi32  0xa000033c        0x0 build/XC32-PIC32_ETH_SK_ETH795/production/_ext/1954962658/ZeroconfLinkLocal.o
 .mdebug.abi32  0xa000033c        0x0 build/XC32-PIC32_ETH_SK_ETH795/production/_ext/1954962658/ZeroconfMulticastDNS.o
 .mdebug.abi32  0xa000033c        0x0 build/XC32-PIC32_ETH_SK_ETH795/production/_ext/243675038/WFDebugStrings.o
 .mdebug.abi32  0xa000033c        0x0 build/XC32-PIC32_ETH_SK_ETH795/production/_ext/1472/CustomHTTPApp.o
 .mdebug.abi32  0xa000033c        0x0 build/XC32-PIC32_ETH_SK_ETH795/production/_ext/1472/CustomSNMPApp.o
 .mdebug.abi32  0xa000033c        0x0 build/XC32-PIC32_ETH_SK_ETH795/production/_ext/1472/CustomSSLCert.o
 .mdebug.abi32  0xa000033c        0x0 build/XC32-PIC32_ETH_SK_ETH795/production/_ext/1472/MainDemo.o
 .mdebug.abi32  0xa000033c        0x0 c:/program files (x86)/microchip/xc32/v1.10/bin/../lib/gcc/pic32mx/4.5.1/../../../../pic32mx/lib\libmchp_peripheral.a(read_core_timer_lib.o)
 .mdebug.abi32  0xa000033c        0x0 c:/program files (x86)/microchip/xc32/v1.10/bin/../lib/gcc/pic32mx/4.5.1/../../../../pic32mx/lib\libmchp_peripheral_32MX795F512L.a(eth_ack_packet_lib.o)
 .mdebug.abi32  0xa000033c        0x0 c:/program files (x86)/microchip/xc32/v1.10/bin/../lib/gcc/pic32mx/4.5.1/../../../../pic32mx/lib\libmchp_peripheral_32MX795F512L.a(eth_descriptors_add_lib.o)
 .mdebug.abi32  0xa000033c        0x0 c:/program files (x86)/microchip/xc32/v1.10/bin/../lib/gcc/pic32mx/4.5.1/../../../../pic32mx/lib\libmchp_peripheral_32MX795F512L.a(eth_init_lib.o)
 .mdebug.abi32  0xa000033c        0x0 c:/program files (x86)/microchip/xc32/v1.10/bin/../lib/gcc/pic32mx/4.5.1/../../../../pic32mx/lib\libmchp_peripheral_32MX795F512L.a(eth_mac_open_lib.o)
 .mdebug.abi32  0xa000033c        0x0 c:/program files (x86)/microchip/xc32/v1.10/bin/../lib/gcc/pic32mx/4.5.1/../../../../pic32mx/lib\libmchp_peripheral_32MX795F512L.a(eth_mac_set_address_max_lib.o)
 .mdebug.abi32  0xa000033c        0x0 c:/program files (x86)/microchip/xc32/v1.10/bin/../lib/gcc/pic32mx/4.5.1/../../../../pic32mx/lib\libmchp_peripheral_32MX795F512L.a(eth_rx_buffers_append_lib.o)
 .mdebug.abi32  0xa000033c        0x0 c:/program files (x86)/microchip/xc32/v1.10/bin/../lib/gcc/pic32mx/4.5.1/../../../../pic32mx/lib\libmchp_peripheral_32MX795F512L.a(eth_rx_filters_lib.o)
 .mdebug.abi32  0xa000033c        0x0 c:/program files (x86)/microchip/xc32/v1.10/bin/../lib/gcc/pic32mx/4.5.1/../../../../pic32mx/lib\libmchp_peripheral_32MX795F512L.a(eth_rx_get_packet_lib.o)
 .mdebug.abi32  0xa000033c        0x0 c:/program files (x86)/microchip/xc32/v1.10/bin/../lib/gcc/pic32mx/4.5.1/../../../../pic32mx/lib\libmchp_peripheral_32MX795F512L.a(eth_rx_set_buffer_size_lib.o)
 .mdebug.abi32  0xa000033c        0x0 c:/program files (x86)/microchip/xc32/v1.10/bin/../lib/gcc/pic32mx/4.5.1/../../../../pic32mx/lib\libmchp_peripheral_32MX795F512L.a(eth_tx_packet_lib.o)
 .mdebug.abi32  0xa000033c        0x0 c:/program files (x86)/microchip/xc32/v1.10/bin/../lib/gcc/pic32mx/4.5.1/../../../../pic32mx/lib\libmchp_peripheral_32MX795F512L.a(_eth_append_busy_list_lib.o)
 .mdebug.abi32  0xa000033c        0x0 c:/program files (x86)/microchip/xc32/v1.10/bin/../lib/gcc/pic32mx/4.5.1/../../../../pic32mx/lib\libmchp_peripheral_32MX795F512L.a(eth_miim_access.o)
 .mdebug.abi32  0xa000033c        0x0 c:/program files (x86)/microchip/xc32/v1.10/bin/../lib/gcc/pic32mx/4.5.1/../../../../pic32mx/lib\libmchp_peripheral_32MX795F512L.a(pcache.o)
 .mdebug.abi32  0xa000033c        0x0 c:/program files (x86)/microchip/xc32/v1.10/bin/../lib/gcc/pic32mx/4.5.1/../../../../pic32mx/lib\libmchp_peripheral_32MX795F512L.a(int_disable_interrupts_lib.o)
 .mdebug.abi32  0xa000033c        0x0 c:/program files (x86)/microchip/xc32/v1.10/bin/../lib/gcc/pic32mx/4.5.1/../../../../pic32mx/lib\libmchp_peripheral_32MX795F512L.a(int_restore_interrupts_lib.o)
 .mdebug.abi32  0xa000033c        0x0 c:/program files (x86)/microchip/xc32/v1.10/bin/../lib/gcc/pic32mx/4.5.1/../../../../pic32mx/lib\libmchp_peripheral_32MX795F512L.a(int_enable_mv_int_lib.o)
 .mdebug.abi32  0xa000033c        0x0 c:/program files (x86)/microchip/xc32/v1.10/bin/../lib/gcc/pic32mx/4.5.1/../../../../pic32mx/lib\libmchp_peripheral_32MX795F512L.a(int_tbl_lib.o)
 .mdebug.abi32  0xa000033c        0x0 c:/program files (x86)/microchip/xc32/v1.10/bin/../lib/gcc/pic32mx/4.5.1/../../../../pic32mx/lib\libmchp_peripheral_32MX795F512L.a(port_set_pins_digital_in_lib.o)
 .mdebug.abi32  0xa000033c        0x0 c:/program files (x86)/microchip/xc32/v1.10/bin/../lib/gcc/pic32mx/4.5.1/../../../../pic32mx/lib\libmchp_peripheral_32MX795F512L.a(port_set_pins_digital_out_lib.o)
 .mdebug.abi32  0xa000033c        0x0 c:/program files (x86)/microchip/xc32/v1.10/bin/../lib/gcc/pic32mx/4.5.1/../../../../pic32mx/lib\libmchp_peripheral_32MX795F512L.a(_ports_tbl_libp.o)
 .mdebug.abi32  0xa000033c        0x0 c:/program files (x86)/microchip/xc32/v1.10/bin/../lib/gcc/pic32mx/4.5.1/../../../../pic32mx/lib\libmchp_peripheral_32MX795F512L.a(int_enable_interrupts_lib.o)
 .mdebug.abi32  0xa000033c        0x0 c:/program files (x86)/microchip/xc32/v1.10/bin/../lib/gcc/pic32mx/4.5.1\libgcc.a(_udivdi3.o)
 .mdebug.abi32  0xa000033c        0x0 c:/program files (x86)/microchip/xc32/v1.10/bin/../lib/gcc/pic32mx/4.5.1\libgcc.a(_umoddi3.o)
 .mdebug.abi32  0xa000033c        0x0 c:/program files (x86)/microchip/xc32/v1.10/bin/../lib/gcc/pic32mx/4.5.1/../../../../pic32mx/lib\libpic32.a(default-bootstrap-exception-handler.o)
 .mdebug.abi32  0xa000033c        0x0 c:/program files (x86)/microchip/xc32/v1.10/bin/../lib/gcc/pic32mx/4.5.1/../../../../pic32mx/lib\libpic32.a(default-on-reset.o)
 .mdebug.abi32  0xa000033c        0x0 c:/program files (x86)/microchip/xc32/v1.10/bin/../lib/gcc/pic32mx/4.5.1/../../../../pic32mx/lib\libpic32.a(default-on-bootstrap.o)
 .mdebug.abi32  0xa000033c        0x0 c:/program files (x86)/microchip/xc32/v1.10/bin/../lib/gcc/pic32mx/4.5.1/../../../../pic32mx/lib\libc.a(calloc.o)
 .mdebug.abi32  0xa000033c        0x0 c:/program files (x86)/microchip/xc32/v1.10/bin/../lib/gcc/pic32mx/4.5.1/../../../../pic32mx/lib\libc.a(malloc.o)
 .mdebug.abi32  0xa000033c        0x0 c:/program files (x86)/microchip/xc32/v1.10/bin/../lib/gcc/pic32mx/4.5.1/../../../../pic32mx/lib\libc.a(strncpy.o)
 .mdebug.abi32  0xa000033c        0x0 c:/program files (x86)/microchip/xc32/v1.10/bin/../lib/gcc/pic32mx/4.5.1/../../../../pic32mx/lib\libpic32.a(sbrk.o)
 .mdebug.abi32  0xa000033c        0x0 c:/program files (x86)/microchip/xc32/v1.10/bin/../lib/gcc/pic32mx/4.5.1/../../../../pic32mx/lib\libpic32.a(errno.o)

.mdebug.abiN32
 *(.mdebug.abiN32)

.mdebug.abi64
 *(.mdebug.abi64)

.mdebug.abiO64
 *(.mdebug.abiO64)

.mdebug.eabi32
 *(.mdebug.eabi32)

.mdebug.eabi64
 *(.mdebug.eabi64)

.gcc_compiled_long32
 *(.gcc_compiled_long32)

.gcc_compiled_long64
 *(.gcc_compiled_long64)

.stab
 *(.stab)

.stabstr
 *(.stabstr)

.stab.excl
 *(.stab.excl)

.stab.exclstr
 *(.stab.exclstr)

.stab.index
 *(.stab.index)

.stab.indexstr
 *(.stab.indexstr)

.comment        0x00000000      0x121
 *(.comment)
 .comment       0x00000000       0x3c build/XC32-PIC32_ETH_SK_ETH795/production/_ext/1472/BerkeleyTCPClientDemo.o
                                 0x3d (size before relaxing)
 .comment       0x00000000       0x3d build/XC32-PIC32_ETH_SK_ETH795/production/_ext/1472/BerkeleyTCPServerDemo.o
 .comment       0x00000000       0x3d build/XC32-PIC32_ETH_SK_ETH795/production/_ext/1472/BerkeleyUDPClientDemo.o
 .comment       0x00000000       0x3d build/XC32-PIC32_ETH_SK_ETH795/production/_ext/1472/GenericTCPClient.o
 .comment       0x00000000       0x3d build/XC32-PIC32_ETH_SK_ETH795/production/_ext/1472/GenericTCPServer.o
 .comment       0x00000000       0x3d build/XC32-PIC32_ETH_SK_ETH795/production/_ext/1472/PingDemo.o
 .comment       0x00000000       0x3d build/XC32-PIC32_ETH_SK_ETH795/production/_ext/1472/SMTPDemo.o
 .comment       0x00000000       0x3d build/XC32-PIC32_ETH_SK_ETH795/production/_ext/1472/UARTConfig.o
 .comment       0x00000000       0x3d build/XC32-PIC32_ETH_SK_ETH795/production/_ext/1954962658/ARCFOUR.o
 .comment       0x00000000       0x3d build/XC32-PIC32_ETH_SK_ETH795/production/_ext/1954962658/ARP.o
 .comment       0x00000000       0x3d build/XC32-PIC32_ETH_SK_ETH795/production/_ext/1954962658/Announce.o
 .comment       0x00000000       0x3d build/XC32-PIC32_ETH_SK_ETH795/production/_ext/1954962658/AutoIP.o
 .comment       0x00000000       0x3d build/XC32-PIC32_ETH_SK_ETH795/production/_ext/1954962658/BerkeleyAPI.o
 .comment       0x00000000       0x3d build/XC32-PIC32_ETH_SK_ETH795/production/_ext/1954962658/BigInt.o
 .comment       0x00000000       0x3d build/XC32-PIC32_ETH_SK_ETH795/production/_ext/1954962658/DHCP.o
 .comment       0x00000000       0x3d build/XC32-PIC32_ETH_SK_ETH795/production/_ext/1954962658/DHCPs.o
 .comment       0x00000000       0x3d build/XC32-PIC32_ETH_SK_ETH795/production/_ext/1954962658/DNS.o
 .comment       0x00000000       0x3d build/XC32-PIC32_ETH_SK_ETH795/production/_ext/1954962658/DNSs.o
 .comment       0x00000000       0x3d build/XC32-PIC32_ETH_SK_ETH795/production/_ext/1954962658/Delay.o
 .comment       0x00000000       0x3d build/XC32-PIC32_ETH_SK_ETH795/production/_ext/1954962658/DynDNS.o
 .comment       0x00000000       0x3d build/XC32-PIC32_ETH_SK_ETH795/production/_ext/1954962658/ENC28J60.o
 .comment       0x00000000       0x3d build/XC32-PIC32_ETH_SK_ETH795/production/_ext/1954962658/ENCX24J600.o
 .comment       0x00000000       0x3d build/XC32-PIC32_ETH_SK_ETH795/production/_ext/1954962658/ETHPIC32ExtPhy.o
 .comment       0x00000000       0x3d build/XC32-PIC32_ETH_SK_ETH795/production/_ext/1954962658/ETHPIC32ExtPhyDP83848.o
 .comment       0x00000000       0x3d build/XC32-PIC32_ETH_SK_ETH795/production/_ext/1954962658/ETHPIC32IntMac.o
 .comment       0x00000000       0x3d build/XC32-PIC32_ETH_SK_ETH795/production/_ext/1954962658/FTP.o
 .comment       0x00000000       0x3d build/XC32-PIC32_ETH_SK_ETH795/production/_ext/1954962658/FileSystem.o
 .comment       0x00000000       0x3d build/XC32-PIC32_ETH_SK_ETH795/production/_ext/1954962658/HTTP2.o
 .comment       0x00000000       0x3d build/XC32-PIC32_ETH_SK_ETH795/production/_ext/1954962658/Hashes.o
 .comment       0x00000000       0x3d build/XC32-PIC32_ETH_SK_ETH795/production/_ext/1954962658/Helpers.o
 .comment       0x00000000       0x3d build/XC32-PIC32_ETH_SK_ETH795/production/_ext/1954962658/ICMP.o
 .comment       0x00000000       0x3d build/XC32-PIC32_ETH_SK_ETH795/production/_ext/1954962658/IP.o
 .comment       0x00000000       0x3d build/XC32-PIC32_ETH_SK_ETH795/production/_ext/1954962658/LCDBlocking.o
 .comment       0x00000000       0x3d build/XC32-PIC32_ETH_SK_ETH795/production/_ext/1954962658/MPFS2.o
 .comment       0x00000000       0x3d build/XC32-PIC32_ETH_SK_ETH795/production/_ext/1472/MPFSImg2.o
 .comment       0x00000000       0x3d build/XC32-PIC32_ETH_SK_ETH795/production/_ext/1954962658/NBNS.o
 .comment       0x00000000       0x3d build/XC32-PIC32_ETH_SK_ETH795/production/_ext/1954962658/RSA.o
 .comment       0x00000000       0x3d build/XC32-PIC32_ETH_SK_ETH795/production/_ext/1954962658/Random.o
 .comment       0x00000000       0x3d build/XC32-PIC32_ETH_SK_ETH795/production/_ext/1954962658/Reboot.o
 .comment       0x00000000       0x3d build/XC32-PIC32_ETH_SK_ETH795/production/_ext/1954962658/SMTP.o
 .comment       0x00000000       0x3d build/XC32-PIC32_ETH_SK_ETH795/production/_ext/1954962658/SNMP.o
 .comment       0x00000000       0x3d build/XC32-PIC32_ETH_SK_ETH795/production/_ext/1954962658/SNMPv3.o
 .comment       0x00000000       0x3d build/XC32-PIC32_ETH_SK_ETH795/production/_ext/1954962658/SNMPv3USM.o
 .comment       0x00000000       0x3d build/XC32-PIC32_ETH_SK_ETH795/production/_ext/1954962658/SNTP.o
 .comment       0x00000000       0x3d build/XC32-PIC32_ETH_SK_ETH795/production/_ext/1954962658/SPIEEPROM.o
 .comment       0x00000000       0x3d build/XC32-PIC32_ETH_SK_ETH795/production/_ext/1954962658/SPIFlash.o
 .comment       0x00000000       0x3d build/XC32-PIC32_ETH_SK_ETH795/production/_ext/1954962658/SPIRAM.o
 .comment       0x00000000       0x3d build/XC32-PIC32_ETH_SK_ETH795/production/_ext/1954962658/SSL.o
 .comment       0x00000000       0x3d build/XC32-PIC32_ETH_SK_ETH795/production/_ext/1954962658/StackTsk.o
 .comment       0x00000000       0x3d build/XC32-PIC32_ETH_SK_ETH795/production/_ext/1954962658/TCP.o
 .comment       0x00000000       0x3d build/XC32-PIC32_ETH_SK_ETH795/production/_ext/1954962658/TCPPerformanceTest.o
 .comment       0x00000000       0x3d build/XC32-PIC32_ETH_SK_ETH795/production/_ext/1954962658/TFTPc.o
 .comment       0x00000000       0x3d build/XC32-PIC32_ETH_SK_ETH795/production/_ext/1954962658/Telnet.o
 .comment       0x00000000       0x3d build/XC32-PIC32_ETH_SK_ETH795/production/_ext/1954962658/Tick.o
 .comment       0x00000000       0x3d build/XC32-PIC32_ETH_SK_ETH795/production/_ext/1954962658/UART.o
 .comment       0x00000000       0x3d build/XC32-PIC32_ETH_SK_ETH795/production/_ext/1954962658/UART2TCPBridge.o
 .comment       0x00000000       0x3d build/XC32-PIC32_ETH_SK_ETH795/production/_ext/1954962658/UDP.o
 .comment       0x00000000       0x3d build/XC32-PIC32_ETH_SK_ETH795/production/_ext/1954962658/UDPPerformanceTest.o
 .comment       0x00000000       0x3d build/XC32-PIC32_ETH_SK_ETH795/production/_ext/1954962658/ZeroconfHelper.o
 .comment       0x00000000       0x3d build/XC32-PIC32_ETH_SK_ETH795/production/_ext/1954962658/ZeroconfLinkLocal.o
 .comment       0x00000000       0x3d build/XC32-PIC32_ETH_SK_ETH795/production/_ext/1954962658/ZeroconfMulticastDNS.o
 .comment       0x00000000       0x3d build/XC32-PIC32_ETH_SK_ETH795/production/_ext/243675038/WFDebugStrings.o
 .comment       0x00000000       0x3d build/XC32-PIC32_ETH_SK_ETH795/production/_ext/1472/CustomHTTPApp.o
 .comment       0x00000000       0x3d build/XC32-PIC32_ETH_SK_ETH795/production/_ext/1472/CustomSNMPApp.o
 .comment       0x00000000       0x3d build/XC32-PIC32_ETH_SK_ETH795/production/_ext/1472/CustomSSLCert.o
 .comment       0x00000000       0x3d build/XC32-PIC32_ETH_SK_ETH795/production/_ext/1472/MainDemo.o
 .comment       0x0000003c       0x51 c:/program files (x86)/microchip/xc32/v1.10/bin/../lib/gcc/pic32mx/4.5.1/../../../../pic32mx/lib\libmchp_peripheral.a(read_core_timer_lib.o)
                                 0x52 (size before relaxing)
 .comment       0x00000000       0x52 c:/program files (x86)/microchip/xc32/v1.10/bin/../lib/gcc/pic32mx/4.5.1/../../../../pic32mx/lib\libmchp_peripheral_32MX795F512L.a(eth_ack_packet_lib.o)
 .comment       0x00000000       0x52 c:/program files (x86)/microchip/xc32/v1.10/bin/../lib/gcc/pic32mx/4.5.1/../../../../pic32mx/lib\libmchp_peripheral_32MX795F512L.a(eth_descriptors_add_lib.o)
 .comment       0x00000000       0x52 c:/program files (x86)/microchip/xc32/v1.10/bin/../lib/gcc/pic32mx/4.5.1/../../../../pic32mx/lib\libmchp_peripheral_32MX795F512L.a(eth_init_lib.o)
 .comment       0x00000000       0x52 c:/program files (x86)/microchip/xc32/v1.10/bin/../lib/gcc/pic32mx/4.5.1/../../../../pic32mx/lib\libmchp_peripheral_32MX795F512L.a(eth_mac_open_lib.o)
 .comment       0x00000000       0x52 c:/program files (x86)/microchip/xc32/v1.10/bin/../lib/gcc/pic32mx/4.5.1/../../../../pic32mx/lib\libmchp_peripheral_32MX795F512L.a(eth_mac_set_address_max_lib.o)
 .comment       0x00000000       0x52 c:/program files (x86)/microchip/xc32/v1.10/bin/../lib/gcc/pic32mx/4.5.1/../../../../pic32mx/lib\libmchp_peripheral_32MX795F512L.a(eth_rx_buffers_append_lib.o)
 .comment       0x00000000       0x52 c:/program files (x86)/microchip/xc32/v1.10/bin/../lib/gcc/pic32mx/4.5.1/../../../../pic32mx/lib\libmchp_peripheral_32MX795F512L.a(eth_rx_filters_lib.o)
 .comment       0x00000000       0x52 c:/program files (x86)/microchip/xc32/v1.10/bin/../lib/gcc/pic32mx/4.5.1/../../../../pic32mx/lib\libmchp_peripheral_32MX795F512L.a(eth_rx_get_packet_lib.o)
 .comment       0x00000000       0x52 c:/program files (x86)/microchip/xc32/v1.10/bin/../lib/gcc/pic32mx/4.5.1/../../../../pic32mx/lib\libmchp_peripheral_32MX795F512L.a(eth_rx_set_buffer_size_lib.o)
 .comment       0x00000000       0x52 c:/program files (x86)/microchip/xc32/v1.10/bin/../lib/gcc/pic32mx/4.5.1/../../../../pic32mx/lib\libmchp_peripheral_32MX795F512L.a(eth_tx_packet_lib.o)
 .comment       0x00000000       0x52 c:/program files (x86)/microchip/xc32/v1.10/bin/../lib/gcc/pic32mx/4.5.1/../../../../pic32mx/lib\libmchp_peripheral_32MX795F512L.a(_eth_append_busy_list_lib.o)
 .comment       0x00000000       0x52 c:/program files (x86)/microchip/xc32/v1.10/bin/../lib/gcc/pic32mx/4.5.1/../../../../pic32mx/lib\libmchp_peripheral_32MX795F512L.a(eth_miim_access.o)
 .comment       0x00000000       0x52 c:/program files (x86)/microchip/xc32/v1.10/bin/../lib/gcc/pic32mx/4.5.1/../../../../pic32mx/lib\libmchp_peripheral_32MX795F512L.a(pcache.o)
 .comment       0x00000000       0x52 c:/program files (x86)/microchip/xc32/v1.10/bin/../lib/gcc/pic32mx/4.5.1/../../../../pic32mx/lib\libmchp_peripheral_32MX795F512L.a(int_disable_interrupts_lib.o)
 .comment       0x00000000       0x52 c:/program files (x86)/microchip/xc32/v1.10/bin/../lib/gcc/pic32mx/4.5.1/../../../../pic32mx/lib\libmchp_peripheral_32MX795F512L.a(int_restore_interrupts_lib.o)
 .comment       0x00000000       0x52 c:/program files (x86)/microchip/xc32/v1.10/bin/../lib/gcc/pic32mx/4.5.1/../../../../pic32mx/lib\libmchp_peripheral_32MX795F512L.a(int_enable_mv_int_lib.o)
 .comment       0x00000000       0x52 c:/program files (x86)/microchip/xc32/v1.10/bin/../lib/gcc/pic32mx/4.5.1/../../../../pic32mx/lib\libmchp_peripheral_32MX795F512L.a(int_tbl_lib.o)
 .comment       0x00000000       0x52 c:/program files (x86)/microchip/xc32/v1.10/bin/../lib/gcc/pic32mx/4.5.1/../../../../pic32mx/lib\libmchp_peripheral_32MX795F512L.a(port_set_pins_digital_in_lib.o)
 .comment       0x00000000       0x52 c:/program files (x86)/microchip/xc32/v1.10/bin/../lib/gcc/pic32mx/4.5.1/../../../../pic32mx/lib\libmchp_peripheral_32MX795F512L.a(port_set_pins_digital_out_lib.o)
 .comment       0x00000000       0x52 c:/program files (x86)/microchip/xc32/v1.10/bin/../lib/gcc/pic32mx/4.5.1/../../../../pic32mx/lib\libmchp_peripheral_32MX795F512L.a(_ports_tbl_libp.o)
 .comment       0x00000000       0x52 c:/program files (x86)/microchip/xc32/v1.10/bin/../lib/gcc/pic32mx/4.5.1/../../../../pic32mx/lib\libmchp_peripheral_32MX795F512L.a(int_enable_interrupts_lib.o)
 .comment       0x00000000       0x3d c:/program files (x86)/microchip/xc32/v1.10/bin/../lib/gcc/pic32mx/4.5.1\libgcc.a(_udivdi3.o)
 .comment       0x00000000       0x3d c:/program files (x86)/microchip/xc32/v1.10/bin/../lib/gcc/pic32mx/4.5.1\libgcc.a(_umoddi3.o)
 .comment       0x0000008d       0x18 c:/program files (x86)/microchip/xc32/v1.10/bin/../lib/gcc/pic32mx/4.5.1/../../../../pic32mx/lib\libpic32.a(memcmp.o)
                                 0x19 (size before relaxing)
 .comment       0x000000a5       0x18 c:/program files (x86)/microchip/xc32/v1.10/bin/../lib/gcc/pic32mx/4.5.1/../../../../pic32mx/lib\libpic32.a(memset.o)
                                 0x19 (size before relaxing)
 .comment       0x000000bd       0x19 c:/program files (x86)/microchip/xc32/v1.10/bin/../lib/gcc/pic32mx/4.5.1/../../../../pic32mx/lib\libpic32.a(strlen.o)
                                 0x1a (size before relaxing)
 .comment       0x00000000       0x3d c:/program files (x86)/microchip/xc32/v1.10/bin/../lib/gcc/pic32mx/4.5.1/../../../../pic32mx/lib\libpic32.a(default-bootstrap-exception-handler.o)
 .comment       0x00000000       0x3d c:/program files (x86)/microchip/xc32/v1.10/bin/../lib/gcc/pic32mx/4.5.1/../../../../pic32mx/lib\libpic32.a(default-on-reset.o)
 .comment       0x00000000       0x3d c:/program files (x86)/microchip/xc32/v1.10/bin/../lib/gcc/pic32mx/4.5.1/../../../../pic32mx/lib\libpic32.a(default-on-bootstrap.o)
 .comment       0x00000000       0x3d c:/program files (x86)/microchip/xc32/v1.10/bin/../lib/gcc/pic32mx/4.5.1/../../../../pic32mx/lib\libc.a(calloc.o)
 .comment       0x00000000       0x3d c:/program files (x86)/microchip/xc32/v1.10/bin/../lib/gcc/pic32mx/4.5.1/../../../../pic32mx/lib\libc.a(malloc.o)
 .comment       0x00000000       0x3d c:/program files (x86)/microchip/xc32/v1.10/bin/../lib/gcc/pic32mx/4.5.1/../../../../pic32mx/lib\libc.a(strncpy.o)
 .comment       0x000000d6       0x4b c:/program files (x86)/microchip/xc32/v1.10/bin/../lib/gcc/pic32mx/4.5.1/../../../../pic32mx/lib\libpic32.a(sbrk.o)
                                 0x88 (size before relaxing)
 .comment       0x00000000       0x3d c:/program files (x86)/microchip/xc32/v1.10/bin/../lib/gcc/pic32mx/4.5.1/../../../../pic32mx/lib\libpic32.a(errno.o)

.debug
 *(.debug)

.line
 *(.line)

.debug_srcinfo
 *(.debug_srcinfo)

.debug_sfnames
 *(.debug_sfnames)

.debug_aranges  0x00000000      0x7f8
 *(.debug_aranges)
 .debug_aranges
                0x00000000       0x20 build/XC32-PIC32_ETH_SK_ETH795/production/_ext/1472/BerkeleyTCPClientDemo.o
 .debug_aranges
                0x00000020       0x20 build/XC32-PIC32_ETH_SK_ETH795/production/_ext/1472/BerkeleyTCPServerDemo.o
 .debug_aranges
                0x00000040       0x20 build/XC32-PIC32_ETH_SK_ETH795/production/_ext/1472/BerkeleyUDPClientDemo.o
 .debug_aranges
                0x00000060       0x20 build/XC32-PIC32_ETH_SK_ETH795/production/_ext/1472/GenericTCPClient.o
 .debug_aranges
                0x00000080       0x20 build/XC32-PIC32_ETH_SK_ETH795/production/_ext/1472/GenericTCPServer.o
 .debug_aranges
                0x000000a0       0x20 build/XC32-PIC32_ETH_SK_ETH795/production/_ext/1472/PingDemo.o
 .debug_aranges
                0x000000c0       0x20 build/XC32-PIC32_ETH_SK_ETH795/production/_ext/1954962658/ARP.o
 .debug_aranges
                0x000000e0       0x20 build/XC32-PIC32_ETH_SK_ETH795/production/_ext/1954962658/AutoIP.o
 .debug_aranges
                0x00000100       0x20 build/XC32-PIC32_ETH_SK_ETH795/production/_ext/1954962658/BerkeleyAPI.o
 .debug_aranges
                0x00000120       0x20 build/XC32-PIC32_ETH_SK_ETH795/production/_ext/1954962658/DHCP.o
 .debug_aranges
                0x00000140       0x20 build/XC32-PIC32_ETH_SK_ETH795/production/_ext/1954962658/DHCPs.o
 .debug_aranges
                0x00000160       0x20 build/XC32-PIC32_ETH_SK_ETH795/production/_ext/1954962658/DNS.o
 .debug_aranges
                0x00000180       0x20 build/XC32-PIC32_ETH_SK_ETH795/production/_ext/1954962658/Delay.o
 .debug_aranges
                0x000001a0       0x20 build/XC32-PIC32_ETH_SK_ETH795/production/_ext/1954962658/ETHPIC32ExtPhy.o
 .debug_aranges
                0x000001c0       0x20 build/XC32-PIC32_ETH_SK_ETH795/production/_ext/1954962658/ETHPIC32ExtPhyDP83848.o
 .debug_aranges
                0x000001e0       0x20 build/XC32-PIC32_ETH_SK_ETH795/production/_ext/1954962658/ETHPIC32IntMac.o
 .debug_aranges
                0x00000200       0x20 build/XC32-PIC32_ETH_SK_ETH795/production/_ext/1954962658/Helpers.o
 .debug_aranges
                0x00000220       0x20 build/XC32-PIC32_ETH_SK_ETH795/production/_ext/1954962658/ICMP.o
 .debug_aranges
                0x00000240       0x20 build/XC32-PIC32_ETH_SK_ETH795/production/_ext/1954962658/IP.o
 .debug_aranges
                0x00000260       0x20 build/XC32-PIC32_ETH_SK_ETH795/production/_ext/1954962658/StackTsk.o
 .debug_aranges
                0x00000280       0x20 build/XC32-PIC32_ETH_SK_ETH795/production/_ext/1954962658/TCP.o
 .debug_aranges
                0x000002a0       0x20 build/XC32-PIC32_ETH_SK_ETH795/production/_ext/1954962658/Tick.o
 .debug_aranges
                0x000002c0       0x20 build/XC32-PIC32_ETH_SK_ETH795/production/_ext/1954962658/UDP.o
 .debug_aranges
                0x000002e0       0x20 build/XC32-PIC32_ETH_SK_ETH795/production/_ext/1472/MainDemo.o
 .debug_aranges
                0x00000300       0x20 c:/program files (x86)/microchip/xc32/v1.10/bin/../lib/gcc/pic32mx/4.5.1/../../../../pic32mx/lib\libmchp_peripheral.a(read_core_timer_lib.o)
 .debug_aranges
                0x00000320       0x48 c:/program files (x86)/microchip/xc32/v1.10/bin/../lib/gcc/pic32mx/4.5.1/../../../../pic32mx/lib\libmchp_peripheral_32MX795F512L.a(eth_ack_packet_lib.o)
 .debug_aranges
                0x00000368       0x28 c:/program files (x86)/microchip/xc32/v1.10/bin/../lib/gcc/pic32mx/4.5.1/../../../../pic32mx/lib\libmchp_peripheral_32MX795F512L.a(eth_descriptors_add_lib.o)
 .debug_aranges
                0x00000390       0x20 c:/program files (x86)/microchip/xc32/v1.10/bin/../lib/gcc/pic32mx/4.5.1/../../../../pic32mx/lib\libmchp_peripheral_32MX795F512L.a(eth_init_lib.o)
 .debug_aranges
                0x000003b0       0x20 c:/program files (x86)/microchip/xc32/v1.10/bin/../lib/gcc/pic32mx/4.5.1/../../../../pic32mx/lib\libmchp_peripheral_32MX795F512L.a(eth_mac_open_lib.o)
 .debug_aranges
                0x000003d0       0x30 c:/program files (x86)/microchip/xc32/v1.10/bin/../lib/gcc/pic32mx/4.5.1/../../../../pic32mx/lib\libmchp_peripheral_32MX795F512L.a(eth_mac_set_address_max_lib.o)
 .debug_aranges
                0x00000400       0x20 c:/program files (x86)/microchip/xc32/v1.10/bin/../lib/gcc/pic32mx/4.5.1/../../../../pic32mx/lib\libmchp_peripheral_32MX795F512L.a(eth_rx_buffers_append_lib.o)
 .debug_aranges
                0x00000420       0x48 c:/program files (x86)/microchip/xc32/v1.10/bin/../lib/gcc/pic32mx/4.5.1/../../../../pic32mx/lib\libmchp_peripheral_32MX795F512L.a(eth_rx_filters_lib.o)
 .debug_aranges
                0x00000468       0x28 c:/program files (x86)/microchip/xc32/v1.10/bin/../lib/gcc/pic32mx/4.5.1/../../../../pic32mx/lib\libmchp_peripheral_32MX795F512L.a(eth_rx_get_packet_lib.o)
 .debug_aranges
                0x00000490       0x20 c:/program files (x86)/microchip/xc32/v1.10/bin/../lib/gcc/pic32mx/4.5.1/../../../../pic32mx/lib\libmchp_peripheral_32MX795F512L.a(eth_rx_set_buffer_size_lib.o)
 .debug_aranges
                0x000004b0       0x48 c:/program files (x86)/microchip/xc32/v1.10/bin/../lib/gcc/pic32mx/4.5.1/../../../../pic32mx/lib\libmchp_peripheral_32MX795F512L.a(eth_tx_packet_lib.o)
 .debug_aranges
                0x000004f8       0x20 c:/program files (x86)/microchip/xc32/v1.10/bin/../lib/gcc/pic32mx/4.5.1/../../../../pic32mx/lib\libmchp_peripheral_32MX795F512L.a(_eth_append_busy_list_lib.o)
 .debug_aranges
                0x00000518       0x48 c:/program files (x86)/microchip/xc32/v1.10/bin/../lib/gcc/pic32mx/4.5.1/../../../../pic32mx/lib\libmchp_peripheral_32MX795F512L.a(eth_miim_access.o)
 .debug_aranges
                0x00000560       0x28 c:/program files (x86)/microchip/xc32/v1.10/bin/../lib/gcc/pic32mx/4.5.1/../../../../pic32mx/lib\libmchp_peripheral_32MX795F512L.a(pcache.o)
 .debug_aranges
                0x00000588       0x20 c:/program files (x86)/microchip/xc32/v1.10/bin/../lib/gcc/pic32mx/4.5.1/../../../../pic32mx/lib\libmchp_peripheral_32MX795F512L.a(int_disable_interrupts_lib.o)
 .debug_aranges
                0x000005a8       0x20 c:/program files (x86)/microchip/xc32/v1.10/bin/../lib/gcc/pic32mx/4.5.1/../../../../pic32mx/lib\libmchp_peripheral_32MX795F512L.a(int_restore_interrupts_lib.o)
 .debug_aranges
                0x000005c8       0x20 c:/program files (x86)/microchip/xc32/v1.10/bin/../lib/gcc/pic32mx/4.5.1/../../../../pic32mx/lib\libmchp_peripheral_32MX795F512L.a(int_enable_mv_int_lib.o)
 .debug_aranges
                0x000005e8       0x60 c:/program files (x86)/microchip/xc32/v1.10/bin/../lib/gcc/pic32mx/4.5.1/../../../../pic32mx/lib\libmchp_peripheral_32MX795F512L.a(int_tbl_lib.o)
 .debug_aranges
                0x00000648       0x20 c:/program files (x86)/microchip/xc32/v1.10/bin/../lib/gcc/pic32mx/4.5.1/../../../../pic32mx/lib\libmchp_peripheral_32MX795F512L.a(port_set_pins_digital_in_lib.o)
 .debug_aranges
                0x00000668       0x20 c:/program files (x86)/microchip/xc32/v1.10/bin/../lib/gcc/pic32mx/4.5.1/../../../../pic32mx/lib\libmchp_peripheral_32MX795F512L.a(port_set_pins_digital_out_lib.o)
 .debug_aranges
                0x00000688       0x20 c:/program files (x86)/microchip/xc32/v1.10/bin/../lib/gcc/pic32mx/4.5.1/../../../../pic32mx/lib\libmchp_peripheral_32MX795F512L.a(int_enable_interrupts_lib.o)
 .debug_aranges
                0x000006a8       0x20 c:/program files (x86)/microchip/xc32/v1.10/bin/../lib/gcc/pic32mx/4.5.1\libgcc.a(_udivdi3.o)
 .debug_aranges
                0x000006c8       0x20 c:/program files (x86)/microchip/xc32/v1.10/bin/../lib/gcc/pic32mx/4.5.1\libgcc.a(_umoddi3.o)
 .debug_aranges
                0x000006e8       0x20 c:/program files (x86)/microchip/xc32/v1.10/bin/../lib/gcc/pic32mx/4.5.1/../../../../pic32mx/lib\libpic32.a(default-bootstrap-exception-handler.o)
 .debug_aranges
                0x00000708       0x20 c:/program files (x86)/microchip/xc32/v1.10/bin/../lib/gcc/pic32mx/4.5.1/../../../../pic32mx/lib\libpic32.a(default-on-reset.o)
 .debug_aranges
                0x00000728       0x20 c:/program files (x86)/microchip/xc32/v1.10/bin/../lib/gcc/pic32mx/4.5.1/../../../../pic32mx/lib\libpic32.a(default-on-bootstrap.o)
 .debug_aranges
                0x00000748       0x20 c:/program files (x86)/microchip/xc32/v1.10/bin/../lib/gcc/pic32mx/4.5.1/../../../../pic32mx/lib\libc.a(calloc.o)
 .debug_aranges
                0x00000768       0x30 c:/program files (x86)/microchip/xc32/v1.10/bin/../lib/gcc/pic32mx/4.5.1/../../../../pic32mx/lib\libc.a(malloc.o)
 .debug_aranges
                0x00000798       0x20 c:/program files (x86)/microchip/xc32/v1.10/bin/../lib/gcc/pic32mx/4.5.1/../../../../pic32mx/lib\libc.a(strncpy.o)
 .debug_aranges
                0x000007b8       0x40 c:/program files (x86)/microchip/xc32/v1.10/bin/../lib/gcc/pic32mx/4.5.1/../../../../pic32mx/lib\libpic32.a(sbrk.o)

.debug_pubnames
                0x00000000     0x15a6
 *(.debug_pubnames)
 .debug_pubnames
                0x00000000       0x2c build/XC32-PIC32_ETH_SK_ETH795/production/_ext/1472/BerkeleyTCPClientDemo.o
 .debug_pubnames
                0x0000002c       0x2c build/XC32-PIC32_ETH_SK_ETH795/production/_ext/1472/BerkeleyTCPServerDemo.o
 .debug_pubnames
                0x00000058       0x4a build/XC32-PIC32_ETH_SK_ETH795/production/_ext/1472/BerkeleyUDPClientDemo.o
 .debug_pubnames
                0x000000a2       0x27 build/XC32-PIC32_ETH_SK_ETH795/production/_ext/1472/GenericTCPClient.o
 .debug_pubnames
                0x000000c9       0x27 build/XC32-PIC32_ETH_SK_ETH795/production/_ext/1472/GenericTCPServer.o
 .debug_pubnames
                0x000000f0       0x1f build/XC32-PIC32_ETH_SK_ETH795/production/_ext/1472/PingDemo.o
 .debug_pubnames
                0x0000010f       0x6f build/XC32-PIC32_ETH_SK_ETH795/production/_ext/1954962658/ARP.o
 .debug_pubnames
                0x0000017e       0xd2 build/XC32-PIC32_ETH_SK_ETH795/production/_ext/1954962658/AutoIP.o
 .debug_pubnames
                0x00000250       0xa9 build/XC32-PIC32_ETH_SK_ETH795/production/_ext/1954962658/BerkeleyAPI.o
 .debug_pubnames
                0x000002f9       0xcc build/XC32-PIC32_ETH_SK_ETH795/production/_ext/1954962658/DHCP.o
 .debug_pubnames
                0x000003c5       0x78 build/XC32-PIC32_ETH_SK_ETH795/production/_ext/1954962658/DHCPs.o
 .debug_pubnames
                0x0000043d       0x55 build/XC32-PIC32_ETH_SK_ETH795/production/_ext/1954962658/DNS.o
 .debug_pubnames
                0x00000492       0x2c build/XC32-PIC32_ETH_SK_ETH795/production/_ext/1954962658/Delay.o
 .debug_pubnames
                0x000004be      0x110 build/XC32-PIC32_ETH_SK_ETH795/production/_ext/1954962658/ETHPIC32ExtPhy.o
 .debug_pubnames
                0x000005ce       0x6b build/XC32-PIC32_ETH_SK_ETH795/production/_ext/1954962658/ETHPIC32ExtPhyDP83848.o
 .debug_pubnames
                0x00000639      0x213 build/XC32-PIC32_ETH_SK_ETH795/production/_ext/1954962658/ETHPIC32IntMac.o
 .debug_pubnames
                0x0000084c      0x10a build/XC32-PIC32_ETH_SK_ETH795/production/_ext/1954962658/Helpers.o
 .debug_pubnames
                0x00000956       0x7f build/XC32-PIC32_ETH_SK_ETH795/production/_ext/1954962658/ICMP.o
 .debug_pubnames
                0x000009d5       0x44 build/XC32-PIC32_ETH_SK_ETH795/production/_ext/1954962658/IP.o
 .debug_pubnames
                0x00000a19       0x53 build/XC32-PIC32_ETH_SK_ETH795/production/_ext/1954962658/StackTsk.o
 .debug_pubnames
                0x00000a6c      0x1ba build/XC32-PIC32_ETH_SK_ETH795/production/_ext/1954962658/TCP.o
 .debug_pubnames
                0x00000c26       0x7e build/XC32-PIC32_ETH_SK_ETH795/production/_ext/1954962658/Tick.o
 .debug_pubnames
                0x00000ca4      0x155 build/XC32-PIC32_ETH_SK_ETH795/production/_ext/1954962658/UDP.o
 .debug_pubnames
                0x00000df9       0x69 build/XC32-PIC32_ETH_SK_ETH795/production/_ext/1472/MainDemo.o
 .debug_pubnames
                0x00000e62       0x24 c:/program files (x86)/microchip/xc32/v1.10/bin/../lib/gcc/pic32mx/4.5.1/../../../../pic32mx/lib\libmchp_peripheral.a(read_core_timer_lib.o)
 .debug_pubnames
                0x00000e86       0x80 c:/program files (x86)/microchip/xc32/v1.10/bin/../lib/gcc/pic32mx/4.5.1/../../../../pic32mx/lib\libmchp_peripheral_32MX795F512L.a(eth_ack_packet_lib.o)
 .debug_pubnames
                0x00000f06       0x42 c:/program files (x86)/microchip/xc32/v1.10/bin/../lib/gcc/pic32mx/4.5.1/../../../../pic32mx/lib\libmchp_peripheral_32MX795F512L.a(eth_descriptors_add_lib.o)
 .debug_pubnames
                0x00000f48       0x1e c:/program files (x86)/microchip/xc32/v1.10/bin/../lib/gcc/pic32mx/4.5.1/../../../../pic32mx/lib\libmchp_peripheral_32MX795F512L.a(eth_init_lib.o)
 .debug_pubnames
                0x00000f66       0x21 c:/program files (x86)/microchip/xc32/v1.10/bin/../lib/gcc/pic32mx/4.5.1/../../../../pic32mx/lib\libmchp_peripheral_32MX795F512L.a(eth_mac_open_lib.o)
 .debug_pubnames
                0x00000f87       0x52 c:/program files (x86)/microchip/xc32/v1.10/bin/../lib/gcc/pic32mx/4.5.1/../../../../pic32mx/lib\libmchp_peripheral_32MX795F512L.a(eth_mac_set_address_max_lib.o)
 .debug_pubnames
                0x00000fd9       0x29 c:/program files (x86)/microchip/xc32/v1.10/bin/../lib/gcc/pic32mx/4.5.1/../../../../pic32mx/lib\libmchp_peripheral_32MX795F512L.a(eth_rx_buffers_append_lib.o)
 .debug_pubnames
                0x00001002       0x92 c:/program files (x86)/microchip/xc32/v1.10/bin/../lib/gcc/pic32mx/4.5.1/../../../../pic32mx/lib\libmchp_peripheral_32MX795F512L.a(eth_rx_filters_lib.o)
 .debug_pubnames
                0x00001094       0x38 c:/program files (x86)/microchip/xc32/v1.10/bin/../lib/gcc/pic32mx/4.5.1/../../../../pic32mx/lib\libmchp_peripheral_32MX795F512L.a(eth_rx_get_packet_lib.o)
 .debug_pubnames
                0x000010cc       0x29 c:/program files (x86)/microchip/xc32/v1.10/bin/../lib/gcc/pic32mx/4.5.1/../../../../pic32mx/lib\libmchp_peripheral_32MX795F512L.a(eth_rx_set_buffer_size_lib.o)
 .debug_pubnames
                0x000010f5       0x66 c:/program files (x86)/microchip/xc32/v1.10/bin/../lib/gcc/pic32mx/4.5.1/../../../../pic32mx/lib\libmchp_peripheral_32MX795F512L.a(eth_tx_packet_lib.o)
 .debug_pubnames
                0x0000115b       0x29 c:/program files (x86)/microchip/xc32/v1.10/bin/../lib/gcc/pic32mx/4.5.1/../../../../pic32mx/lib\libmchp_peripheral_32MX795F512L.a(_eth_append_busy_list_lib.o)
 .debug_pubnames
                0x00001184       0x90 c:/program files (x86)/microchip/xc32/v1.10/bin/../lib/gcc/pic32mx/4.5.1/../../../../pic32mx/lib\libmchp_peripheral_32MX795F512L.a(eth_miim_access.o)
 .debug_pubnames
                0x00001214       0x3b c:/program files (x86)/microchip/xc32/v1.10/bin/../lib/gcc/pic32mx/4.5.1/../../../../pic32mx/lib\libmchp_peripheral_32MX795F512L.a(pcache.o)
 .debug_pubnames
                0x0000124f       0x2b c:/program files (x86)/microchip/xc32/v1.10/bin/../lib/gcc/pic32mx/4.5.1/../../../../pic32mx/lib\libmchp_peripheral_32MX795F512L.a(int_disable_interrupts_lib.o)
 .debug_pubnames
                0x0000127a       0x2b c:/program files (x86)/microchip/xc32/v1.10/bin/../lib/gcc/pic32mx/4.5.1/../../../../pic32mx/lib\libmchp_peripheral_32MX795F512L.a(int_restore_interrupts_lib.o)
 .debug_pubnames
                0x000012a5       0x36 c:/program files (x86)/microchip/xc32/v1.10/bin/../lib/gcc/pic32mx/4.5.1/../../../../pic32mx/lib\libmchp_peripheral_32MX795F512L.a(int_enable_mv_int_lib.o)
 .debug_pubnames
                0x000012db       0xca c:/program files (x86)/microchip/xc32/v1.10/bin/../lib/gcc/pic32mx/4.5.1/../../../../pic32mx/lib\libmchp_peripheral_32MX795F512L.a(int_tbl_lib.o)
 .debug_pubnames
                0x000013a5       0x2b c:/program files (x86)/microchip/xc32/v1.10/bin/../lib/gcc/pic32mx/4.5.1/../../../../pic32mx/lib\libmchp_peripheral_32MX795F512L.a(port_set_pins_digital_in_lib.o)
 .debug_pubnames
                0x000013d0       0x2c c:/program files (x86)/microchip/xc32/v1.10/bin/../lib/gcc/pic32mx/4.5.1/../../../../pic32mx/lib\libmchp_peripheral_32MX795F512L.a(port_set_pins_digital_out_lib.o)
 .debug_pubnames
                0x000013fc       0x2a c:/program files (x86)/microchip/xc32/v1.10/bin/../lib/gcc/pic32mx/4.5.1/../../../../pic32mx/lib\libmchp_peripheral_32MX795F512L.a(int_enable_interrupts_lib.o)
 .debug_pubnames
                0x00001426       0x20 c:/program files (x86)/microchip/xc32/v1.10/bin/../lib/gcc/pic32mx/4.5.1\libgcc.a(_udivdi3.o)
 .debug_pubnames
                0x00001446       0x20 c:/program files (x86)/microchip/xc32/v1.10/bin/../lib/gcc/pic32mx/4.5.1\libgcc.a(_umoddi3.o)
 .debug_pubnames
                0x00001466       0x33 c:/program files (x86)/microchip/xc32/v1.10/bin/../lib/gcc/pic32mx/4.5.1/../../../../pic32mx/lib\libpic32.a(default-bootstrap-exception-handler.o)
 .debug_pubnames
                0x00001499       0x20 c:/program files (x86)/microchip/xc32/v1.10/bin/../lib/gcc/pic32mx/4.5.1/../../../../pic32mx/lib\libpic32.a(default-on-reset.o)
 .debug_pubnames
                0x000014b9       0x24 c:/program files (x86)/microchip/xc32/v1.10/bin/../lib/gcc/pic32mx/4.5.1/../../../../pic32mx/lib\libpic32.a(default-on-bootstrap.o)
 .debug_pubnames
                0x000014dd       0x1d c:/program files (x86)/microchip/xc32/v1.10/bin/../lib/gcc/pic32mx/4.5.1/../../../../pic32mx/lib\libc.a(calloc.o)
 .debug_pubnames
                0x000014fa       0x32 c:/program files (x86)/microchip/xc32/v1.10/bin/../lib/gcc/pic32mx/4.5.1/../../../../pic32mx/lib\libc.a(malloc.o)
 .debug_pubnames
                0x0000152c       0x1e c:/program files (x86)/microchip/xc32/v1.10/bin/../lib/gcc/pic32mx/4.5.1/../../../../pic32mx/lib\libc.a(strncpy.o)
 .debug_pubnames
                0x0000154a       0x5c c:/program files (x86)/microchip/xc32/v1.10/bin/../lib/gcc/pic32mx/4.5.1/../../../../pic32mx/lib\libpic32.a(sbrk.o)

.debug_info     0x00000000    0x5d602
 *(.debug_info .gnu.linkonce.wi.*)
 .debug_info    0x00000000     0x1b36 build/XC32-PIC32_ETH_SK_ETH795/production/_ext/1472/BerkeleyTCPClientDemo.o
 .debug_info    0x00001b36     0x144c build/XC32-PIC32_ETH_SK_ETH795/production/_ext/1472/BerkeleyTCPServerDemo.o
 .debug_info    0x00002f82     0x1b9b build/XC32-PIC32_ETH_SK_ETH795/production/_ext/1472/BerkeleyUDPClientDemo.o
 .debug_info    0x00004b1d     0x14bf build/XC32-PIC32_ETH_SK_ETH795/production/_ext/1472/GenericTCPClient.o
 .debug_info    0x00005fdc     0x1293 build/XC32-PIC32_ETH_SK_ETH795/production/_ext/1472/GenericTCPServer.o
 .debug_info    0x0000726f     0x139c build/XC32-PIC32_ETH_SK_ETH795/production/_ext/1472/PingDemo.o
 .debug_info    0x0000860b     0x1144 build/XC32-PIC32_ETH_SK_ETH795/production/_ext/1472/SMTPDemo.o
 .debug_info    0x0000974f     0x1146 build/XC32-PIC32_ETH_SK_ETH795/production/_ext/1472/UARTConfig.o
 .debug_info    0x0000a895     0x115f build/XC32-PIC32_ETH_SK_ETH795/production/_ext/1954962658/ARCFOUR.o
 .debug_info    0x0000b9f4     0x1b95 build/XC32-PIC32_ETH_SK_ETH795/production/_ext/1954962658/ARP.o
 .debug_info    0x0000d589     0x1160 build/XC32-PIC32_ETH_SK_ETH795/production/_ext/1954962658/Announce.o
 .debug_info    0x0000e6e9     0x1e66 build/XC32-PIC32_ETH_SK_ETH795/production/_ext/1954962658/AutoIP.o
 .debug_info    0x0001054f     0x2490 build/XC32-PIC32_ETH_SK_ETH795/production/_ext/1954962658/BerkeleyAPI.o
 .debug_info    0x000129df     0x115e build/XC32-PIC32_ETH_SK_ETH795/production/_ext/1954962658/BigInt.o
 .debug_info    0x00013b3d     0x2146 build/XC32-PIC32_ETH_SK_ETH795/production/_ext/1954962658/DHCP.o
 .debug_info    0x00015c83     0x22bf build/XC32-PIC32_ETH_SK_ETH795/production/_ext/1954962658/DHCPs.o
 .debug_info    0x00017f42     0x1da9 build/XC32-PIC32_ETH_SK_ETH795/production/_ext/1954962658/DNS.o
 .debug_info    0x00019ceb     0x115c build/XC32-PIC32_ETH_SK_ETH795/production/_ext/1954962658/DNSs.o
 .debug_info    0x0001ae47     0x11f2 build/XC32-PIC32_ETH_SK_ETH795/production/_ext/1954962658/Delay.o
 .debug_info    0x0001c039     0x115e build/XC32-PIC32_ETH_SK_ETH795/production/_ext/1954962658/DynDNS.o
 .debug_info    0x0001d197     0x1160 build/XC32-PIC32_ETH_SK_ETH795/production/_ext/1954962658/ENC28J60.o
 .debug_info    0x0001e2f7     0x1162 build/XC32-PIC32_ETH_SK_ETH795/production/_ext/1954962658/ENCX24J600.o
 .debug_info    0x0001f459     0x2720 build/XC32-PIC32_ETH_SK_ETH795/production/_ext/1954962658/ETHPIC32ExtPhy.o
 .debug_info    0x00021b79     0x16a1 build/XC32-PIC32_ETH_SK_ETH795/production/_ext/1954962658/ETHPIC32ExtPhyDP83848.o
 .debug_info    0x0002321a     0x2d12 build/XC32-PIC32_ETH_SK_ETH795/production/_ext/1954962658/ETHPIC32IntMac.o
 .debug_info    0x00025f2c     0x115b build/XC32-PIC32_ETH_SK_ETH795/production/_ext/1954962658/FTP.o
 .debug_info    0x00027087     0x1162 build/XC32-PIC32_ETH_SK_ETH795/production/_ext/1954962658/FileSystem.o
 .debug_info    0x000281e9     0x115d build/XC32-PIC32_ETH_SK_ETH795/production/_ext/1954962658/HTTP2.o
 .debug_info    0x00029346     0x115e build/XC32-PIC32_ETH_SK_ETH795/production/_ext/1954962658/Hashes.o
 .debug_info    0x0002a4a4     0x24a2 build/XC32-PIC32_ETH_SK_ETH795/production/_ext/1954962658/Helpers.o
 .debug_info    0x0002c946     0x1aed build/XC32-PIC32_ETH_SK_ETH795/production/_ext/1954962658/ICMP.o
 .debug_info    0x0002e433     0x1b3a build/XC32-PIC32_ETH_SK_ETH795/production/_ext/1954962658/IP.o
 .debug_info    0x0002ff6d     0x1163 build/XC32-PIC32_ETH_SK_ETH795/production/_ext/1954962658/LCDBlocking.o
 .debug_info    0x000310d0     0x115d build/XC32-PIC32_ETH_SK_ETH795/production/_ext/1954962658/MPFS2.o
 .debug_info    0x0003222d     0x1144 build/XC32-PIC32_ETH_SK_ETH795/production/_ext/1472/MPFSImg2.o
 .debug_info    0x00033371     0x115c build/XC32-PIC32_ETH_SK_ETH795/production/_ext/1954962658/NBNS.o
 .debug_info    0x000344cd     0x115b build/XC32-PIC32_ETH_SK_ETH795/production/_ext/1954962658/RSA.o
 .debug_info    0x00035628     0x115e build/XC32-PIC32_ETH_SK_ETH795/production/_ext/1954962658/Random.o
 .debug_info    0x00036786     0x115e build/XC32-PIC32_ETH_SK_ETH795/production/_ext/1954962658/Reboot.o
 .debug_info    0x000378e4     0x115c build/XC32-PIC32_ETH_SK_ETH795/production/_ext/1954962658/SMTP.o
 .debug_info    0x00038a40     0x115c build/XC32-PIC32_ETH_SK_ETH795/production/_ext/1954962658/SNMP.o
 .debug_info    0x00039b9c     0x115e build/XC32-PIC32_ETH_SK_ETH795/production/_ext/1954962658/SNMPv3.o
 .debug_info    0x0003acfa     0x1161 build/XC32-PIC32_ETH_SK_ETH795/production/_ext/1954962658/SNMPv3USM.o
 .debug_info    0x0003be5b     0x115c build/XC32-PIC32_ETH_SK_ETH795/production/_ext/1954962658/SNTP.o
 .debug_info    0x0003cfb7     0x1161 build/XC32-PIC32_ETH_SK_ETH795/production/_ext/1954962658/SPIEEPROM.o
 .debug_info    0x0003e118     0x1160 build/XC32-PIC32_ETH_SK_ETH795/production/_ext/1954962658/SPIFlash.o
 .debug_info    0x0003f278     0x115e build/XC32-PIC32_ETH_SK_ETH795/production/_ext/1954962658/SPIRAM.o
 .debug_info    0x000403d6     0x115b build/XC32-PIC32_ETH_SK_ETH795/production/_ext/1954962658/SSL.o
 .debug_info    0x00041531     0x1a49 build/XC32-PIC32_ETH_SK_ETH795/production/_ext/1954962658/StackTsk.o
 .debug_info    0x00042f7a     0x31f3 build/XC32-PIC32_ETH_SK_ETH795/production/_ext/1954962658/TCP.o
 .debug_info    0x0004616d     0x116a build/XC32-PIC32_ETH_SK_ETH795/production/_ext/1954962658/TCPPerformanceTest.o
 .debug_info    0x000472d7     0x115d build/XC32-PIC32_ETH_SK_ETH795/production/_ext/1954962658/TFTPc.o
 .debug_info    0x00048434     0x115e build/XC32-PIC32_ETH_SK_ETH795/production/_ext/1954962658/Telnet.o
 .debug_info    0x00049592     0x1caf build/XC32-PIC32_ETH_SK_ETH795/production/_ext/1954962658/Tick.o
 .debug_info    0x0004b241     0x115c build/XC32-PIC32_ETH_SK_ETH795/production/_ext/1954962658/UART.o
 .debug_info    0x0004c39d     0x1166 build/XC32-PIC32_ETH_SK_ETH795/production/_ext/1954962658/UART2TCPBridge.o
 .debug_info    0x0004d503     0x2205 build/XC32-PIC32_ETH_SK_ETH795/production/_ext/1954962658/UDP.o
 .debug_info    0x0004f708     0x116a build/XC32-PIC32_ETH_SK_ETH795/production/_ext/1954962658/UDPPerformanceTest.o
 .debug_info    0x00050872     0x1166 build/XC32-PIC32_ETH_SK_ETH795/production/_ext/1954962658/ZeroconfHelper.o
 .debug_info    0x000519d8     0x1169 build/XC32-PIC32_ETH_SK_ETH795/production/_ext/1954962658/ZeroconfLinkLocal.o
 .debug_info    0x00052b41     0x116c build/XC32-PIC32_ETH_SK_ETH795/production/_ext/1954962658/ZeroconfMulticastDNS.o
 .debug_info    0x00053cad     0x116b build/XC32-PIC32_ETH_SK_ETH795/production/_ext/243675038/WFDebugStrings.o
 .debug_info    0x00054e18     0x1149 build/XC32-PIC32_ETH_SK_ETH795/production/_ext/1472/CustomHTTPApp.o
 .debug_info    0x00055f61     0x1149 build/XC32-PIC32_ETH_SK_ETH795/production/_ext/1472/CustomSNMPApp.o
 .debug_info    0x000570aa     0x1149 build/XC32-PIC32_ETH_SK_ETH795/production/_ext/1472/CustomSSLCert.o
 .debug_info    0x000581f3     0x2aa9 build/XC32-PIC32_ETH_SK_ETH795/production/_ext/1472/MainDemo.o
 .debug_info    0x0005ac9c       0xbf c:/program files (x86)/microchip/xc32/v1.10/bin/../lib/gcc/pic32mx/4.5.1/../../../../pic32mx/lib\libmchp_peripheral.a(read_core_timer_lib.o)
 .debug_info    0x0005ad5b      0x180 c:/program files (x86)/microchip/xc32/v1.10/bin/../lib/gcc/pic32mx/4.5.1/../../../../pic32mx/lib\libmchp_peripheral_32MX795F512L.a(eth_ack_packet_lib.o)
 .debug_info    0x0005aedb      0x107 c:/program files (x86)/microchip/xc32/v1.10/bin/../lib/gcc/pic32mx/4.5.1/../../../../pic32mx/lib\libmchp_peripheral_32MX795F512L.a(eth_descriptors_add_lib.o)
 .debug_info    0x0005afe2       0xd3 c:/program files (x86)/microchip/xc32/v1.10/bin/../lib/gcc/pic32mx/4.5.1/../../../../pic32mx/lib\libmchp_peripheral_32MX795F512L.a(eth_init_lib.o)
 .debug_info    0x0005b0b5       0xb7 c:/program files (x86)/microchip/xc32/v1.10/bin/../lib/gcc/pic32mx/4.5.1/../../../../pic32mx/lib\libmchp_peripheral_32MX795F512L.a(eth_mac_open_lib.o)
 .debug_info    0x0005b16c      0x107 c:/program files (x86)/microchip/xc32/v1.10/bin/../lib/gcc/pic32mx/4.5.1/../../../../pic32mx/lib\libmchp_peripheral_32MX795F512L.a(eth_mac_set_address_max_lib.o)
 .debug_info    0x0005b273       0xfb c:/program files (x86)/microchip/xc32/v1.10/bin/../lib/gcc/pic32mx/4.5.1/../../../../pic32mx/lib\libmchp_peripheral_32MX795F512L.a(eth_rx_buffers_append_lib.o)
 .debug_info    0x0005b36e      0x15c c:/program files (x86)/microchip/xc32/v1.10/bin/../lib/gcc/pic32mx/4.5.1/../../../../pic32mx/lib\libmchp_peripheral_32MX795F512L.a(eth_rx_filters_lib.o)
 .debug_info    0x0005b4ca       0xdd c:/program files (x86)/microchip/xc32/v1.10/bin/../lib/gcc/pic32mx/4.5.1/../../../../pic32mx/lib\libmchp_peripheral_32MX795F512L.a(eth_rx_get_packet_lib.o)
 .debug_info    0x0005b5a7       0xc9 c:/program files (x86)/microchip/xc32/v1.10/bin/../lib/gcc/pic32mx/4.5.1/../../../../pic32mx/lib\libmchp_peripheral_32MX795F512L.a(eth_rx_set_buffer_size_lib.o)
 .debug_info    0x0005b670      0x191 c:/program files (x86)/microchip/xc32/v1.10/bin/../lib/gcc/pic32mx/4.5.1/../../../../pic32mx/lib\libmchp_peripheral_32MX795F512L.a(eth_tx_packet_lib.o)
 .debug_info    0x0005b801       0xe9 c:/program files (x86)/microchip/xc32/v1.10/bin/../lib/gcc/pic32mx/4.5.1/../../../../pic32mx/lib\libmchp_peripheral_32MX795F512L.a(_eth_append_busy_list_lib.o)
 .debug_info    0x0005b8ea      0x158 c:/program files (x86)/microchip/xc32/v1.10/bin/../lib/gcc/pic32mx/4.5.1/../../../../pic32mx/lib\libmchp_peripheral_32MX795F512L.a(eth_miim_access.o)
 .debug_info    0x0005ba42       0xd4 c:/program files (x86)/microchip/xc32/v1.10/bin/../lib/gcc/pic32mx/4.5.1/../../../../pic32mx/lib\libmchp_peripheral_32MX795F512L.a(pcache.o)
 .debug_info    0x0005bb16       0xcb c:/program files (x86)/microchip/xc32/v1.10/bin/../lib/gcc/pic32mx/4.5.1/../../../../pic32mx/lib\libmchp_peripheral_32MX795F512L.a(int_disable_interrupts_lib.o)
 .debug_info    0x0005bbe1       0xcb c:/program files (x86)/microchip/xc32/v1.10/bin/../lib/gcc/pic32mx/4.5.1/../../../../pic32mx/lib\libmchp_peripheral_32MX795F512L.a(int_restore_interrupts_lib.o)
 .debug_info    0x0005bcac       0xd1 c:/program files (x86)/microchip/xc32/v1.10/bin/../lib/gcc/pic32mx/4.5.1/../../../../pic32mx/lib\libmchp_peripheral_32MX795F512L.a(int_enable_mv_int_lib.o)
 .debug_info    0x0005bd7d      0x1ab c:/program files (x86)/microchip/xc32/v1.10/bin/../lib/gcc/pic32mx/4.5.1/../../../../pic32mx/lib\libmchp_peripheral_32MX795F512L.a(int_tbl_lib.o)
 .debug_info    0x0005bf28       0xcf c:/program files (x86)/microchip/xc32/v1.10/bin/../lib/gcc/pic32mx/4.5.1/../../../../pic32mx/lib\libmchp_peripheral_32MX795F512L.a(port_set_pins_digital_in_lib.o)
 .debug_info    0x0005bff7       0xd1 c:/program files (x86)/microchip/xc32/v1.10/bin/../lib/gcc/pic32mx/4.5.1/../../../../pic32mx/lib\libmchp_peripheral_32MX795F512L.a(port_set_pins_digital_out_lib.o)
 .debug_info    0x0005c0c8        0x0 c:/program files (x86)/microchip/xc32/v1.10/bin/../lib/gcc/pic32mx/4.5.1/../../../../pic32mx/lib\libmchp_peripheral_32MX795F512L.a(_ports_tbl_libp.o)
 .debug_info    0x0005c0c8       0xc9 c:/program files (x86)/microchip/xc32/v1.10/bin/../lib/gcc/pic32mx/4.5.1/../../../../pic32mx/lib\libmchp_peripheral_32MX795F512L.a(int_enable_interrupts_lib.o)
 .debug_info    0x0005c191      0x747 c:/program files (x86)/microchip/xc32/v1.10/bin/../lib/gcc/pic32mx/4.5.1\libgcc.a(_udivdi3.o)
 .debug_info    0x0005c8d8      0x784 c:/program files (x86)/microchip/xc32/v1.10/bin/../lib/gcc/pic32mx/4.5.1\libgcc.a(_umoddi3.o)
 .debug_info    0x0005d05c       0xdf c:/program files (x86)/microchip/xc32/v1.10/bin/../lib/gcc/pic32mx/4.5.1/../../../../pic32mx/lib\libpic32.a(default-bootstrap-exception-handler.o)
 .debug_info    0x0005d13b       0xb9 c:/program files (x86)/microchip/xc32/v1.10/bin/../lib/gcc/pic32mx/4.5.1/../../../../pic32mx/lib\libpic32.a(default-on-reset.o)
 .debug_info    0x0005d1f4       0xc1 c:/program files (x86)/microchip/xc32/v1.10/bin/../lib/gcc/pic32mx/4.5.1/../../../../pic32mx/lib\libpic32.a(default-on-bootstrap.o)
 .debug_info    0x0005d2b5       0xae c:/program files (x86)/microchip/xc32/v1.10/bin/../lib/gcc/pic32mx/4.5.1/../../../../pic32mx/lib\libc.a(calloc.o)
 .debug_info    0x0005d363       0xdd c:/program files (x86)/microchip/xc32/v1.10/bin/../lib/gcc/pic32mx/4.5.1/../../../../pic32mx/lib\libc.a(malloc.o)
 .debug_info    0x0005d440       0xb0 c:/program files (x86)/microchip/xc32/v1.10/bin/../lib/gcc/pic32mx/4.5.1/../../../../pic32mx/lib\libc.a(strncpy.o)
 .debug_info    0x0005d4f0      0x112 c:/program files (x86)/microchip/xc32/v1.10/bin/../lib/gcc/pic32mx/4.5.1/../../../../pic32mx/lib\libpic32.a(sbrk.o)
 .debug_info    0x0005d602        0x0 c:/program files (x86)/microchip/xc32/v1.10/bin/../lib/gcc/pic32mx/4.5.1/../../../../pic32mx/lib\libpic32.a(errno.o)

.debug_abbrev   0x00000000     0x7ab8
 *(.debug_abbrev)
 .debug_abbrev  0x00000000      0x1e3 build/XC32-PIC32_ETH_SK_ETH795/production/_ext/1472/BerkeleyTCPClientDemo.o
 .debug_abbrev  0x000001e3      0x1c7 build/XC32-PIC32_ETH_SK_ETH795/production/_ext/1472/BerkeleyTCPServerDemo.o
 .debug_abbrev  0x000003aa      0x20b build/XC32-PIC32_ETH_SK_ETH795/production/_ext/1472/BerkeleyUDPClientDemo.o
 .debug_abbrev  0x000005b5      0x1ad build/XC32-PIC32_ETH_SK_ETH795/production/_ext/1472/GenericTCPClient.o
 .debug_abbrev  0x00000762      0x1ad build/XC32-PIC32_ETH_SK_ETH795/production/_ext/1472/GenericTCPServer.o
 .debug_abbrev  0x0000090f      0x1a2 build/XC32-PIC32_ETH_SK_ETH795/production/_ext/1472/PingDemo.o
 .debug_abbrev  0x00000ab1      0x166 build/XC32-PIC32_ETH_SK_ETH795/production/_ext/1472/SMTPDemo.o
 .debug_abbrev  0x00000c17      0x166 build/XC32-PIC32_ETH_SK_ETH795/production/_ext/1472/UARTConfig.o
 .debug_abbrev  0x00000d7d      0x166 build/XC32-PIC32_ETH_SK_ETH795/production/_ext/1954962658/ARCFOUR.o
 .debug_abbrev  0x00000ee3      0x275 build/XC32-PIC32_ETH_SK_ETH795/production/_ext/1954962658/ARP.o
 .debug_abbrev  0x00001158      0x166 build/XC32-PIC32_ETH_SK_ETH795/production/_ext/1954962658/Announce.o
 .debug_abbrev  0x000012be      0x26a build/XC32-PIC32_ETH_SK_ETH795/production/_ext/1954962658/AutoIP.o
 .debug_abbrev  0x00001528      0x2cc build/XC32-PIC32_ETH_SK_ETH795/production/_ext/1954962658/BerkeleyAPI.o
 .debug_abbrev  0x000017f4      0x166 build/XC32-PIC32_ETH_SK_ETH795/production/_ext/1954962658/BigInt.o
 .debug_abbrev  0x0000195a      0x2bd build/XC32-PIC32_ETH_SK_ETH795/production/_ext/1954962658/DHCP.o
 .debug_abbrev  0x00001c17      0x29b build/XC32-PIC32_ETH_SK_ETH795/production/_ext/1954962658/DHCPs.o
 .debug_abbrev  0x00001eb2      0x271 build/XC32-PIC32_ETH_SK_ETH795/production/_ext/1954962658/DNS.o
 .debug_abbrev  0x00002123      0x166 build/XC32-PIC32_ETH_SK_ETH795/production/_ext/1954962658/DNSs.o
 .debug_abbrev  0x00002289      0x19b build/XC32-PIC32_ETH_SK_ETH795/production/_ext/1954962658/Delay.o
 .debug_abbrev  0x00002424      0x166 build/XC32-PIC32_ETH_SK_ETH795/production/_ext/1954962658/DynDNS.o
 .debug_abbrev  0x0000258a      0x166 build/XC32-PIC32_ETH_SK_ETH795/production/_ext/1954962658/ENC28J60.o
 .debug_abbrev  0x000026f0      0x166 build/XC32-PIC32_ETH_SK_ETH795/production/_ext/1954962658/ENCX24J600.o
 .debug_abbrev  0x00002856      0x34c build/XC32-PIC32_ETH_SK_ETH795/production/_ext/1954962658/ETHPIC32ExtPhy.o
 .debug_abbrev  0x00002ba2      0x1ca build/XC32-PIC32_ETH_SK_ETH795/production/_ext/1954962658/ETHPIC32ExtPhyDP83848.o
 .debug_abbrev  0x00002d6c      0x33d build/XC32-PIC32_ETH_SK_ETH795/production/_ext/1954962658/ETHPIC32IntMac.o
 .debug_abbrev  0x000030a9      0x166 build/XC32-PIC32_ETH_SK_ETH795/production/_ext/1954962658/FTP.o
 .debug_abbrev  0x0000320f      0x166 build/XC32-PIC32_ETH_SK_ETH795/production/_ext/1954962658/FileSystem.o
 .debug_abbrev  0x00003375      0x166 build/XC32-PIC32_ETH_SK_ETH795/production/_ext/1954962658/HTTP2.o
 .debug_abbrev  0x000034db      0x166 build/XC32-PIC32_ETH_SK_ETH795/production/_ext/1954962658/Hashes.o
 .debug_abbrev  0x00003641      0x24c build/XC32-PIC32_ETH_SK_ETH795/production/_ext/1954962658/Helpers.o
 .debug_abbrev  0x0000388d      0x246 build/XC32-PIC32_ETH_SK_ETH795/production/_ext/1954962658/ICMP.o
 .debug_abbrev  0x00003ad3      0x242 build/XC32-PIC32_ETH_SK_ETH795/production/_ext/1954962658/IP.o
 .debug_abbrev  0x00003d15      0x166 build/XC32-PIC32_ETH_SK_ETH795/production/_ext/1954962658/LCDBlocking.o
 .debug_abbrev  0x00003e7b      0x166 build/XC32-PIC32_ETH_SK_ETH795/production/_ext/1954962658/MPFS2.o
 .debug_abbrev  0x00003fe1      0x166 build/XC32-PIC32_ETH_SK_ETH795/production/_ext/1472/MPFSImg2.o
 .debug_abbrev  0x00004147      0x166 build/XC32-PIC32_ETH_SK_ETH795/production/_ext/1954962658/NBNS.o
 .debug_abbrev  0x000042ad      0x166 build/XC32-PIC32_ETH_SK_ETH795/production/_ext/1954962658/RSA.o
 .debug_abbrev  0x00004413      0x166 build/XC32-PIC32_ETH_SK_ETH795/production/_ext/1954962658/Random.o
 .debug_abbrev  0x00004579      0x166 build/XC32-PIC32_ETH_SK_ETH795/production/_ext/1954962658/Reboot.o
 .debug_abbrev  0x000046df      0x166 build/XC32-PIC32_ETH_SK_ETH795/production/_ext/1954962658/SMTP.o
 .debug_abbrev  0x00004845      0x166 build/XC32-PIC32_ETH_SK_ETH795/production/_ext/1954962658/SNMP.o
 .debug_abbrev  0x000049ab      0x166 build/XC32-PIC32_ETH_SK_ETH795/production/_ext/1954962658/SNMPv3.o
 .debug_abbrev  0x00004b11      0x166 build/XC32-PIC32_ETH_SK_ETH795/production/_ext/1954962658/SNMPv3USM.o
 .debug_abbrev  0x00004c77      0x166 build/XC32-PIC32_ETH_SK_ETH795/production/_ext/1954962658/SNTP.o
 .debug_abbrev  0x00004ddd      0x166 build/XC32-PIC32_ETH_SK_ETH795/production/_ext/1954962658/SPIEEPROM.o
 .debug_abbrev  0x00004f43      0x166 build/XC32-PIC32_ETH_SK_ETH795/production/_ext/1954962658/SPIFlash.o
 .debug_abbrev  0x000050a9      0x166 build/XC32-PIC32_ETH_SK_ETH795/production/_ext/1954962658/SPIRAM.o
 .debug_abbrev  0x0000520f      0x166 build/XC32-PIC32_ETH_SK_ETH795/production/_ext/1954962658/SSL.o
 .debug_abbrev  0x00005375      0x223 build/XC32-PIC32_ETH_SK_ETH795/production/_ext/1954962658/StackTsk.o
 .debug_abbrev  0x00005598      0x2db build/XC32-PIC32_ETH_SK_ETH795/production/_ext/1954962658/TCP.o
 .debug_abbrev  0x00005873      0x166 build/XC32-PIC32_ETH_SK_ETH795/production/_ext/1954962658/TCPPerformanceTest.o
 .debug_abbrev  0x000059d9      0x166 build/XC32-PIC32_ETH_SK_ETH795/production/_ext/1954962658/TFTPc.o
 .debug_abbrev  0x00005b3f      0x166 build/XC32-PIC32_ETH_SK_ETH795/production/_ext/1954962658/Telnet.o
 .debug_abbrev  0x00005ca5      0x219 build/XC32-PIC32_ETH_SK_ETH795/production/_ext/1954962658/Tick.o
 .debug_abbrev  0x00005ebe      0x166 build/XC32-PIC32_ETH_SK_ETH795/production/_ext/1954962658/UART.o
 .debug_abbrev  0x00006024      0x166 build/XC32-PIC32_ETH_SK_ETH795/production/_ext/1954962658/UART2TCPBridge.o
 .debug_abbrev  0x0000618a      0x2fc build/XC32-PIC32_ETH_SK_ETH795/production/_ext/1954962658/UDP.o
 .debug_abbrev  0x00006486      0x166 build/XC32-PIC32_ETH_SK_ETH795/production/_ext/1954962658/UDPPerformanceTest.o
 .debug_abbrev  0x000065ec      0x166 build/XC32-PIC32_ETH_SK_ETH795/production/_ext/1954962658/ZeroconfHelper.o
 .debug_abbrev  0x00006752      0x166 build/XC32-PIC32_ETH_SK_ETH795/production/_ext/1954962658/ZeroconfLinkLocal.o
 .debug_abbrev  0x000068b8      0x166 build/XC32-PIC32_ETH_SK_ETH795/production/_ext/1954962658/ZeroconfMulticastDNS.o
 .debug_abbrev  0x00006a1e      0x166 build/XC32-PIC32_ETH_SK_ETH795/production/_ext/243675038/WFDebugStrings.o
 .debug_abbrev  0x00006b84      0x166 build/XC32-PIC32_ETH_SK_ETH795/production/_ext/1472/CustomHTTPApp.o
 .debug_abbrev  0x00006cea      0x166 build/XC32-PIC32_ETH_SK_ETH795/production/_ext/1472/CustomSNMPApp.o
 .debug_abbrev  0x00006e50      0x166 build/XC32-PIC32_ETH_SK_ETH795/production/_ext/1472/CustomSSLCert.o
 .debug_abbrev  0x00006fb6      0x36e build/XC32-PIC32_ETH_SK_ETH795/production/_ext/1472/MainDemo.o
 .debug_abbrev  0x00007324       0x25 c:/program files (x86)/microchip/xc32/v1.10/bin/../lib/gcc/pic32mx/4.5.1/../../../../pic32mx/lib\libmchp_peripheral.a(read_core_timer_lib.o)
 .debug_abbrev  0x00007349       0x58 c:/program files (x86)/microchip/xc32/v1.10/bin/../lib/gcc/pic32mx/4.5.1/../../../../pic32mx/lib\libmchp_peripheral_32MX795F512L.a(eth_ack_packet_lib.o)
 .debug_abbrev  0x000073a1       0x34 c:/program files (x86)/microchip/xc32/v1.10/bin/../lib/gcc/pic32mx/4.5.1/../../../../pic32mx/lib\libmchp_peripheral_32MX795F512L.a(eth_descriptors_add_lib.o)
 .debug_abbrev  0x000073d5       0x34 c:/program files (x86)/microchip/xc32/v1.10/bin/../lib/gcc/pic32mx/4.5.1/../../../../pic32mx/lib\libmchp_peripheral_32MX795F512L.a(eth_init_lib.o)
 .debug_abbrev  0x00007409       0x25 c:/program files (x86)/microchip/xc32/v1.10/bin/../lib/gcc/pic32mx/4.5.1/../../../../pic32mx/lib\libmchp_peripheral_32MX795F512L.a(eth_mac_open_lib.o)
 .debug_abbrev  0x0000742e       0x25 c:/program files (x86)/microchip/xc32/v1.10/bin/../lib/gcc/pic32mx/4.5.1/../../../../pic32mx/lib\libmchp_peripheral_32MX795F512L.a(eth_mac_set_address_max_lib.o)
 .debug_abbrev  0x00007453       0x34 c:/program files (x86)/microchip/xc32/v1.10/bin/../lib/gcc/pic32mx/4.5.1/../../../../pic32mx/lib\libmchp_peripheral_32MX795F512L.a(eth_rx_buffers_append_lib.o)
 .debug_abbrev  0x00007487       0x25 c:/program files (x86)/microchip/xc32/v1.10/bin/../lib/gcc/pic32mx/4.5.1/../../../../pic32mx/lib\libmchp_peripheral_32MX795F512L.a(eth_rx_filters_lib.o)
 .debug_abbrev  0x000074ac       0x25 c:/program files (x86)/microchip/xc32/v1.10/bin/../lib/gcc/pic32mx/4.5.1/../../../../pic32mx/lib\libmchp_peripheral_32MX795F512L.a(eth_rx_get_packet_lib.o)
 .debug_abbrev  0x000074d1       0x25 c:/program files (x86)/microchip/xc32/v1.10/bin/../lib/gcc/pic32mx/4.5.1/../../../../pic32mx/lib\libmchp_peripheral_32MX795F512L.a(eth_rx_set_buffer_size_lib.o)
 .debug_abbrev  0x000074f6       0x61 c:/program files (x86)/microchip/xc32/v1.10/bin/../lib/gcc/pic32mx/4.5.1/../../../../pic32mx/lib\libmchp_peripheral_32MX795F512L.a(eth_tx_packet_lib.o)
 .debug_abbrev  0x00007557       0x34 c:/program files (x86)/microchip/xc32/v1.10/bin/../lib/gcc/pic32mx/4.5.1/../../../../pic32mx/lib\libmchp_peripheral_32MX795F512L.a(_eth_append_busy_list_lib.o)
 .debug_abbrev  0x0000758b       0x38 c:/program files (x86)/microchip/xc32/v1.10/bin/../lib/gcc/pic32mx/4.5.1/../../../../pic32mx/lib\libmchp_peripheral_32MX795F512L.a(eth_miim_access.o)
 .debug_abbrev  0x000075c3       0x25 c:/program files (x86)/microchip/xc32/v1.10/bin/../lib/gcc/pic32mx/4.5.1/../../../../pic32mx/lib\libmchp_peripheral_32MX795F512L.a(pcache.o)
 .debug_abbrev  0x000075e8       0x25 c:/program files (x86)/microchip/xc32/v1.10/bin/../lib/gcc/pic32mx/4.5.1/../../../../pic32mx/lib\libmchp_peripheral_32MX795F512L.a(int_disable_interrupts_lib.o)
 .debug_abbrev  0x0000760d       0x25 c:/program files (x86)/microchip/xc32/v1.10/bin/../lib/gcc/pic32mx/4.5.1/../../../../pic32mx/lib\libmchp_peripheral_32MX795F512L.a(int_restore_interrupts_lib.o)
 .debug_abbrev  0x00007632       0x25 c:/program files (x86)/microchip/xc32/v1.10/bin/../lib/gcc/pic32mx/4.5.1/../../../../pic32mx/lib\libmchp_peripheral_32MX795F512L.a(int_enable_mv_int_lib.o)
 .debug_abbrev  0x00007657       0x25 c:/program files (x86)/microchip/xc32/v1.10/bin/../lib/gcc/pic32mx/4.5.1/../../../../pic32mx/lib\libmchp_peripheral_32MX795F512L.a(int_tbl_lib.o)
 .debug_abbrev  0x0000767c       0x25 c:/program files (x86)/microchip/xc32/v1.10/bin/../lib/gcc/pic32mx/4.5.1/../../../../pic32mx/lib\libmchp_peripheral_32MX795F512L.a(port_set_pins_digital_in_lib.o)
 .debug_abbrev  0x000076a1       0x25 c:/program files (x86)/microchip/xc32/v1.10/bin/../lib/gcc/pic32mx/4.5.1/../../../../pic32mx/lib\libmchp_peripheral_32MX795F512L.a(port_set_pins_digital_out_lib.o)
 .debug_abbrev  0x000076c6        0x1 c:/program files (x86)/microchip/xc32/v1.10/bin/../lib/gcc/pic32mx/4.5.1/../../../../pic32mx/lib\libmchp_peripheral_32MX795F512L.a(_ports_tbl_libp.o)
 .debug_abbrev  0x000076c7       0x25 c:/program files (x86)/microchip/xc32/v1.10/bin/../lib/gcc/pic32mx/4.5.1/../../../../pic32mx/lib\libmchp_peripheral_32MX795F512L.a(int_enable_interrupts_lib.o)
 .debug_abbrev  0x000076ec      0x13d c:/program files (x86)/microchip/xc32/v1.10/bin/../lib/gcc/pic32mx/4.5.1\libgcc.a(_udivdi3.o)
 .debug_abbrev  0x00007829      0x15c c:/program files (x86)/microchip/xc32/v1.10/bin/../lib/gcc/pic32mx/4.5.1\libgcc.a(_umoddi3.o)
 .debug_abbrev  0x00007985       0x25 c:/program files (x86)/microchip/xc32/v1.10/bin/../lib/gcc/pic32mx/4.5.1/../../../../pic32mx/lib\libpic32.a(default-bootstrap-exception-handler.o)
 .debug_abbrev  0x000079aa       0x25 c:/program files (x86)/microchip/xc32/v1.10/bin/../lib/gcc/pic32mx/4.5.1/../../../../pic32mx/lib\libpic32.a(default-on-reset.o)
 .debug_abbrev  0x000079cf       0x25 c:/program files (x86)/microchip/xc32/v1.10/bin/../lib/gcc/pic32mx/4.5.1/../../../../pic32mx/lib\libpic32.a(default-on-bootstrap.o)
 .debug_abbrev  0x000079f4       0x25 c:/program files (x86)/microchip/xc32/v1.10/bin/../lib/gcc/pic32mx/4.5.1/../../../../pic32mx/lib\libc.a(calloc.o)
 .debug_abbrev  0x00007a19       0x41 c:/program files (x86)/microchip/xc32/v1.10/bin/../lib/gcc/pic32mx/4.5.1/../../../../pic32mx/lib\libc.a(malloc.o)
 .debug_abbrev  0x00007a5a       0x25 c:/program files (x86)/microchip/xc32/v1.10/bin/../lib/gcc/pic32mx/4.5.1/../../../../pic32mx/lib\libc.a(strncpy.o)
 .debug_abbrev  0x00007a7f       0x38 c:/program files (x86)/microchip/xc32/v1.10/bin/../lib/gcc/pic32mx/4.5.1/../../../../pic32mx/lib\libpic32.a(sbrk.o)
 .debug_abbrev  0x00007ab7        0x1 c:/program files (x86)/microchip/xc32/v1.10/bin/../lib/gcc/pic32mx/4.5.1/../../../../pic32mx/lib\libpic32.a(errno.o)

.debug_line     0x00000000     0x8e17
 *(.debug_line)
 .debug_line    0x00000000      0x1f5 build/XC32-PIC32_ETH_SK_ETH795/production/_ext/1472/BerkeleyTCPClientDemo.o
 .debug_line    0x000001f5      0x1ef build/XC32-PIC32_ETH_SK_ETH795/production/_ext/1472/BerkeleyTCPServerDemo.o
 .debug_line    0x000003e4      0x21b build/XC32-PIC32_ETH_SK_ETH795/production/_ext/1472/BerkeleyUDPClientDemo.o
 .debug_line    0x000005ff      0x1f5 build/XC32-PIC32_ETH_SK_ETH795/production/_ext/1472/GenericTCPClient.o
 .debug_line    0x000007f4      0x1da build/XC32-PIC32_ETH_SK_ETH795/production/_ext/1472/GenericTCPServer.o
 .debug_line    0x000009ce      0x18c build/XC32-PIC32_ETH_SK_ETH795/production/_ext/1472/PingDemo.o
 .debug_line    0x00000b5a      0x144 build/XC32-PIC32_ETH_SK_ETH795/production/_ext/1472/SMTPDemo.o
 .debug_line    0x00000c9e      0x144 build/XC32-PIC32_ETH_SK_ETH795/production/_ext/1472/UARTConfig.o
 .debug_line    0x00000de2      0x144 build/XC32-PIC32_ETH_SK_ETH795/production/_ext/1954962658/ARCFOUR.o
 .debug_line    0x00000f26      0x261 build/XC32-PIC32_ETH_SK_ETH795/production/_ext/1954962658/ARP.o
 .debug_line    0x00001187      0x144 build/XC32-PIC32_ETH_SK_ETH795/production/_ext/1954962658/Announce.o
 .debug_line    0x000012cb      0x2ff build/XC32-PIC32_ETH_SK_ETH795/production/_ext/1954962658/AutoIP.o
 .debug_line    0x000015ca      0x416 build/XC32-PIC32_ETH_SK_ETH795/production/_ext/1954962658/BerkeleyAPI.o
 .debug_line    0x000019e0      0x144 build/XC32-PIC32_ETH_SK_ETH795/production/_ext/1954962658/BigInt.o
 .debug_line    0x00001b24      0x416 build/XC32-PIC32_ETH_SK_ETH795/production/_ext/1954962658/DHCP.o
 .debug_line    0x00001f3a      0x3f9 build/XC32-PIC32_ETH_SK_ETH795/production/_ext/1954962658/DHCPs.o
 .debug_line    0x00002333      0x32c build/XC32-PIC32_ETH_SK_ETH795/production/_ext/1954962658/DNS.o
 .debug_line    0x0000265f      0x144 build/XC32-PIC32_ETH_SK_ETH795/production/_ext/1954962658/DNSs.o
 .debug_line    0x000027a3      0x192 build/XC32-PIC32_ETH_SK_ETH795/production/_ext/1954962658/Delay.o
 .debug_line    0x00002935      0x144 build/XC32-PIC32_ETH_SK_ETH795/production/_ext/1954962658/DynDNS.o
 .debug_line    0x00002a79      0x144 build/XC32-PIC32_ETH_SK_ETH795/production/_ext/1954962658/ENC28J60.o
 .debug_line    0x00002bbd      0x144 build/XC32-PIC32_ETH_SK_ETH795/production/_ext/1954962658/ENCX24J600.o
 .debug_line    0x00002d01      0x415 build/XC32-PIC32_ETH_SK_ETH795/production/_ext/1954962658/ETHPIC32ExtPhy.o
 .debug_line    0x00003116      0x219 build/XC32-PIC32_ETH_SK_ETH795/production/_ext/1954962658/ETHPIC32ExtPhyDP83848.o
 .debug_line    0x0000332f      0x3e2 build/XC32-PIC32_ETH_SK_ETH795/production/_ext/1954962658/ETHPIC32IntMac.o
 .debug_line    0x00003711      0x144 build/XC32-PIC32_ETH_SK_ETH795/production/_ext/1954962658/FTP.o
 .debug_line    0x00003855      0x144 build/XC32-PIC32_ETH_SK_ETH795/production/_ext/1954962658/FileSystem.o
 .debug_line    0x00003999      0x144 build/XC32-PIC32_ETH_SK_ETH795/production/_ext/1954962658/HTTP2.o
 .debug_line    0x00003add      0x144 build/XC32-PIC32_ETH_SK_ETH795/production/_ext/1954962658/Hashes.o
 .debug_line    0x00003c21      0x398 build/XC32-PIC32_ETH_SK_ETH795/production/_ext/1954962658/Helpers.o
 .debug_line    0x00003fb9      0x251 build/XC32-PIC32_ETH_SK_ETH795/production/_ext/1954962658/ICMP.o
 .debug_line    0x0000420a      0x204 build/XC32-PIC32_ETH_SK_ETH795/production/_ext/1954962658/IP.o
 .debug_line    0x0000440e      0x144 build/XC32-PIC32_ETH_SK_ETH795/production/_ext/1954962658/LCDBlocking.o
 .debug_line    0x00004552      0x144 build/XC32-PIC32_ETH_SK_ETH795/production/_ext/1954962658/MPFS2.o
 .debug_line    0x00004696      0x144 build/XC32-PIC32_ETH_SK_ETH795/production/_ext/1472/MPFSImg2.o
 .debug_line    0x000047da      0x144 build/XC32-PIC32_ETH_SK_ETH795/production/_ext/1954962658/NBNS.o
 .debug_line    0x0000491e      0x144 build/XC32-PIC32_ETH_SK_ETH795/production/_ext/1954962658/RSA.o
 .debug_line    0x00004a62      0x144 build/XC32-PIC32_ETH_SK_ETH795/production/_ext/1954962658/Random.o
 .debug_line    0x00004ba6      0x144 build/XC32-PIC32_ETH_SK_ETH795/production/_ext/1954962658/Reboot.o
 .debug_line    0x00004cea      0x144 build/XC32-PIC32_ETH_SK_ETH795/production/_ext/1954962658/SMTP.o
 .debug_line    0x00004e2e      0x144 build/XC32-PIC32_ETH_SK_ETH795/production/_ext/1954962658/SNMP.o
 .debug_line    0x00004f72      0x144 build/XC32-PIC32_ETH_SK_ETH795/production/_ext/1954962658/SNMPv3.o
 .debug_line    0x000050b6      0x144 build/XC32-PIC32_ETH_SK_ETH795/production/_ext/1954962658/SNMPv3USM.o
 .debug_line    0x000051fa      0x144 build/XC32-PIC32_ETH_SK_ETH795/production/_ext/1954962658/SNTP.o
 .debug_line    0x0000533e      0x144 build/XC32-PIC32_ETH_SK_ETH795/production/_ext/1954962658/SPIEEPROM.o
 .debug_line    0x00005482      0x144 build/XC32-PIC32_ETH_SK_ETH795/production/_ext/1954962658/SPIFlash.o
 .debug_line    0x000055c6      0x144 build/XC32-PIC32_ETH_SK_ETH795/production/_ext/1954962658/SPIRAM.o
 .debug_line    0x0000570a      0x144 build/XC32-PIC32_ETH_SK_ETH795/production/_ext/1954962658/SSL.o
 .debug_line    0x0000584e      0x22b build/XC32-PIC32_ETH_SK_ETH795/production/_ext/1954962658/StackTsk.o
 .debug_line    0x00005a79      0xb90 build/XC32-PIC32_ETH_SK_ETH795/production/_ext/1954962658/TCP.o
 .debug_line    0x00006609      0x144 build/XC32-PIC32_ETH_SK_ETH795/production/_ext/1954962658/TCPPerformanceTest.o
 .debug_line    0x0000674d      0x144 build/XC32-PIC32_ETH_SK_ETH795/production/_ext/1954962658/TFTPc.o
 .debug_line    0x00006891      0x144 build/XC32-PIC32_ETH_SK_ETH795/production/_ext/1954962658/Telnet.o
 .debug_line    0x000069d5      0x1dc build/XC32-PIC32_ETH_SK_ETH795/production/_ext/1954962658/Tick.o
 .debug_line    0x00006bb1      0x144 build/XC32-PIC32_ETH_SK_ETH795/production/_ext/1954962658/UART.o
 .debug_line    0x00006cf5      0x144 build/XC32-PIC32_ETH_SK_ETH795/production/_ext/1954962658/UART2TCPBridge.o
 .debug_line    0x00006e39      0x392 build/XC32-PIC32_ETH_SK_ETH795/production/_ext/1954962658/UDP.o
 .debug_line    0x000071cb      0x144 build/XC32-PIC32_ETH_SK_ETH795/production/_ext/1954962658/UDPPerformanceTest.o
 .debug_line    0x0000730f      0x144 build/XC32-PIC32_ETH_SK_ETH795/production/_ext/1954962658/ZeroconfHelper.o
 .debug_line    0x00007453      0x144 build/XC32-PIC32_ETH_SK_ETH795/production/_ext/1954962658/ZeroconfLinkLocal.o
 .debug_line    0x00007597      0x144 build/XC32-PIC32_ETH_SK_ETH795/production/_ext/1954962658/ZeroconfMulticastDNS.o
 .debug_line    0x000076db      0x144 build/XC32-PIC32_ETH_SK_ETH795/production/_ext/243675038/WFDebugStrings.o
 .debug_line    0x0000781f      0x144 build/XC32-PIC32_ETH_SK_ETH795/production/_ext/1472/CustomHTTPApp.o
 .debug_line    0x00007963      0x144 build/XC32-PIC32_ETH_SK_ETH795/production/_ext/1472/CustomSNMPApp.o
 .debug_line    0x00007aa7      0x144 build/XC32-PIC32_ETH_SK_ETH795/production/_ext/1472/CustomSSLCert.o
 .debug_line    0x00007beb      0x2ff build/XC32-PIC32_ETH_SK_ETH795/production/_ext/1472/MainDemo.o
 .debug_line    0x00007eea       0x6e c:/program files (x86)/microchip/xc32/v1.10/bin/../lib/gcc/pic32mx/4.5.1/../../../../pic32mx/lib\libmchp_peripheral.a(read_core_timer_lib.o)
 .debug_line    0x00007f58       0x80 c:/program files (x86)/microchip/xc32/v1.10/bin/../lib/gcc/pic32mx/4.5.1/../../../../pic32mx/lib\libmchp_peripheral_32MX795F512L.a(eth_ack_packet_lib.o)
 .debug_line    0x00007fd8       0x85 c:/program files (x86)/microchip/xc32/v1.10/bin/../lib/gcc/pic32mx/4.5.1/../../../../pic32mx/lib\libmchp_peripheral_32MX795F512L.a(eth_descriptors_add_lib.o)
 .debug_line    0x0000805d       0x77 c:/program files (x86)/microchip/xc32/v1.10/bin/../lib/gcc/pic32mx/4.5.1/../../../../pic32mx/lib\libmchp_peripheral_32MX795F512L.a(eth_init_lib.o)
 .debug_line    0x000080d4       0x69 c:/program files (x86)/microchip/xc32/v1.10/bin/../lib/gcc/pic32mx/4.5.1/../../../../pic32mx/lib\libmchp_peripheral_32MX795F512L.a(eth_mac_open_lib.o)
 .debug_line    0x0000813d       0x74 c:/program files (x86)/microchip/xc32/v1.10/bin/../lib/gcc/pic32mx/4.5.1/../../../../pic32mx/lib\libmchp_peripheral_32MX795F512L.a(eth_mac_set_address_max_lib.o)
 .debug_line    0x000081b1       0x87 c:/program files (x86)/microchip/xc32/v1.10/bin/../lib/gcc/pic32mx/4.5.1/../../../../pic32mx/lib\libmchp_peripheral_32MX795F512L.a(eth_rx_buffers_append_lib.o)
 .debug_line    0x00008238       0x6b c:/program files (x86)/microchip/xc32/v1.10/bin/../lib/gcc/pic32mx/4.5.1/../../../../pic32mx/lib\libmchp_peripheral_32MX795F512L.a(eth_rx_filters_lib.o)
 .debug_line    0x000082a3       0x6e c:/program files (x86)/microchip/xc32/v1.10/bin/../lib/gcc/pic32mx/4.5.1/../../../../pic32mx/lib\libmchp_peripheral_32MX795F512L.a(eth_rx_get_packet_lib.o)
 .debug_line    0x00008311       0x73 c:/program files (x86)/microchip/xc32/v1.10/bin/../lib/gcc/pic32mx/4.5.1/../../../../pic32mx/lib\libmchp_peripheral_32MX795F512L.a(eth_rx_set_buffer_size_lib.o)
 .debug_line    0x00008384       0x7f c:/program files (x86)/microchip/xc32/v1.10/bin/../lib/gcc/pic32mx/4.5.1/../../../../pic32mx/lib\libmchp_peripheral_32MX795F512L.a(eth_tx_packet_lib.o)
 .debug_line    0x00008403       0x87 c:/program files (x86)/microchip/xc32/v1.10/bin/../lib/gcc/pic32mx/4.5.1/../../../../pic32mx/lib\libmchp_peripheral_32MX795F512L.a(_eth_append_busy_list_lib.o)
 .debug_line    0x0000848a       0x68 c:/program files (x86)/microchip/xc32/v1.10/bin/../lib/gcc/pic32mx/4.5.1/../../../../pic32mx/lib\libmchp_peripheral_32MX795F512L.a(eth_miim_access.o)
 .debug_line    0x000084f2       0x62 c:/program files (x86)/microchip/xc32/v1.10/bin/../lib/gcc/pic32mx/4.5.1/../../../../pic32mx/lib\libmchp_peripheral_32MX795F512L.a(pcache.o)
 .debug_line    0x00008554       0x73 c:/program files (x86)/microchip/xc32/v1.10/bin/../lib/gcc/pic32mx/4.5.1/../../../../pic32mx/lib\libmchp_peripheral_32MX795F512L.a(int_disable_interrupts_lib.o)
 .debug_line    0x000085c7       0x73 c:/program files (x86)/microchip/xc32/v1.10/bin/../lib/gcc/pic32mx/4.5.1/../../../../pic32mx/lib\libmchp_peripheral_32MX795F512L.a(int_restore_interrupts_lib.o)
 .debug_line    0x0000863a       0x6e c:/program files (x86)/microchip/xc32/v1.10/bin/../lib/gcc/pic32mx/4.5.1/../../../../pic32mx/lib\libmchp_peripheral_32MX795F512L.a(int_enable_mv_int_lib.o)
 .debug_line    0x000086a8       0x64 c:/program files (x86)/microchip/xc32/v1.10/bin/../lib/gcc/pic32mx/4.5.1/../../../../pic32mx/lib\libmchp_peripheral_32MX795F512L.a(int_tbl_lib.o)
 .debug_line    0x0000870c       0x77 c:/program files (x86)/microchip/xc32/v1.10/bin/../lib/gcc/pic32mx/4.5.1/../../../../pic32mx/lib\libmchp_peripheral_32MX795F512L.a(port_set_pins_digital_in_lib.o)
 .debug_line    0x00008783       0x78 c:/program files (x86)/microchip/xc32/v1.10/bin/../lib/gcc/pic32mx/4.5.1/../../../../pic32mx/lib\libmchp_peripheral_32MX795F512L.a(port_set_pins_digital_out_lib.o)
 .debug_line    0x000087fb        0x0 c:/program files (x86)/microchip/xc32/v1.10/bin/../lib/gcc/pic32mx/4.5.1/../../../../pic32mx/lib\libmchp_peripheral_32MX795F512L.a(_ports_tbl_libp.o)
 .debug_line    0x000087fb       0x72 c:/program files (x86)/microchip/xc32/v1.10/bin/../lib/gcc/pic32mx/4.5.1/../../../../pic32mx/lib\libmchp_peripheral_32MX795F512L.a(int_enable_interrupts_lib.o)
 .debug_line    0x0000886d      0x116 c:/program files (x86)/microchip/xc32/v1.10/bin/../lib/gcc/pic32mx/4.5.1\libgcc.a(_udivdi3.o)
 .debug_line    0x00008983      0x119 c:/program files (x86)/microchip/xc32/v1.10/bin/../lib/gcc/pic32mx/4.5.1\libgcc.a(_umoddi3.o)
 .debug_line    0x00008a9c       0x94 c:/program files (x86)/microchip/xc32/v1.10/bin/../lib/gcc/pic32mx/4.5.1/../../../../pic32mx/lib\libpic32.a(default-bootstrap-exception-handler.o)
 .debug_line    0x00008b30       0x81 c:/program files (x86)/microchip/xc32/v1.10/bin/../lib/gcc/pic32mx/4.5.1/../../../../pic32mx/lib\libpic32.a(default-on-reset.o)
 .debug_line    0x00008bb1       0x85 c:/program files (x86)/microchip/xc32/v1.10/bin/../lib/gcc/pic32mx/4.5.1/../../../../pic32mx/lib\libpic32.a(default-on-bootstrap.o)
 .debug_line    0x00008c36       0x79 c:/program files (x86)/microchip/xc32/v1.10/bin/../lib/gcc/pic32mx/4.5.1/../../../../pic32mx/lib\libc.a(calloc.o)
 .debug_line    0x00008caf       0x79 c:/program files (x86)/microchip/xc32/v1.10/bin/../lib/gcc/pic32mx/4.5.1/../../../../pic32mx/lib\libc.a(malloc.o)
 .debug_line    0x00008d28       0x7a c:/program files (x86)/microchip/xc32/v1.10/bin/../lib/gcc/pic32mx/4.5.1/../../../../pic32mx/lib\libc.a(strncpy.o)
 .debug_line    0x00008da2       0x75 c:/program files (x86)/microchip/xc32/v1.10/bin/../lib/gcc/pic32mx/4.5.1/../../../../pic32mx/lib\libpic32.a(sbrk.o)
 .debug_line    0x00008e17        0x0 c:/program files (x86)/microchip/xc32/v1.10/bin/../lib/gcc/pic32mx/4.5.1/../../../../pic32mx/lib\libpic32.a(errno.o)

.debug_frame    0x00000000     0x1f80
 *(.debug_frame)
 .debug_frame   0x00000000       0x30 build/XC32-PIC32_ETH_SK_ETH795/production/_ext/1472/BerkeleyTCPClientDemo.o
 .debug_frame   0x00000030       0x30 build/XC32-PIC32_ETH_SK_ETH795/production/_ext/1472/BerkeleyTCPServerDemo.o
 .debug_frame   0x00000060       0x48 build/XC32-PIC32_ETH_SK_ETH795/production/_ext/1472/BerkeleyUDPClientDemo.o
 .debug_frame   0x000000a8       0x2c build/XC32-PIC32_ETH_SK_ETH795/production/_ext/1472/GenericTCPClient.o
 .debug_frame   0x000000d4       0x2c build/XC32-PIC32_ETH_SK_ETH795/production/_ext/1472/GenericTCPServer.o
 .debug_frame   0x00000100       0x2c build/XC32-PIC32_ETH_SK_ETH795/production/_ext/1472/PingDemo.o
 .debug_frame   0x0000012c       0xd4 build/XC32-PIC32_ETH_SK_ETH795/production/_ext/1954962658/ARP.o
 .debug_frame   0x00000200      0x130 build/XC32-PIC32_ETH_SK_ETH795/production/_ext/1954962658/AutoIP.o
 .debug_frame   0x00000330      0x17c build/XC32-PIC32_ETH_SK_ETH795/production/_ext/1954962658/BerkeleyAPI.o
 .debug_frame   0x000004ac      0x154 build/XC32-PIC32_ETH_SK_ETH795/production/_ext/1954962658/DHCP.o
 .debug_frame   0x00000600      0x198 build/XC32-PIC32_ETH_SK_ETH795/production/_ext/1954962658/DHCPs.o
 .debug_frame   0x00000798       0xb8 build/XC32-PIC32_ETH_SK_ETH795/production/_ext/1954962658/DNS.o
 .debug_frame   0x00000850       0x48 build/XC32-PIC32_ETH_SK_ETH795/production/_ext/1954962658/Delay.o
 .debug_frame   0x00000898      0x160 build/XC32-PIC32_ETH_SK_ETH795/production/_ext/1954962658/ETHPIC32ExtPhy.o
 .debug_frame   0x000009f8       0x80 build/XC32-PIC32_ETH_SK_ETH795/production/_ext/1954962658/ETHPIC32ExtPhyDP83848.o
 .debug_frame   0x00000a78      0x2cc build/XC32-PIC32_ETH_SK_ETH795/production/_ext/1954962658/ETHPIC32IntMac.o
 .debug_frame   0x00000d44      0x1d4 build/XC32-PIC32_ETH_SK_ETH795/production/_ext/1954962658/Helpers.o
 .debug_frame   0x00000f18       0xb8 build/XC32-PIC32_ETH_SK_ETH795/production/_ext/1954962658/ICMP.o
 .debug_frame   0x00000fd0       0x80 build/XC32-PIC32_ETH_SK_ETH795/production/_ext/1954962658/IP.o
 .debug_frame   0x00001050       0x64 build/XC32-PIC32_ETH_SK_ETH795/production/_ext/1954962658/StackTsk.o
 .debug_frame   0x000010b4      0x3dc build/XC32-PIC32_ETH_SK_ETH795/production/_ext/1954962658/TCP.o
 .debug_frame   0x00001490       0xd8 build/XC32-PIC32_ETH_SK_ETH795/production/_ext/1954962658/Tick.o
 .debug_frame   0x00001568      0x210 build/XC32-PIC32_ETH_SK_ETH795/production/_ext/1954962658/UDP.o
 .debug_frame   0x00001778       0xb8 build/XC32-PIC32_ETH_SK_ETH795/production/_ext/1472/MainDemo.o
 .debug_frame   0x00001830       0x20 c:/program files (x86)/microchip/xc32/v1.10/bin/../lib/gcc/pic32mx/4.5.1/../../../../pic32mx/lib\libmchp_peripheral.a(read_core_timer_lib.o)
 .debug_frame   0x00001850       0xb8 c:/program files (x86)/microchip/xc32/v1.10/bin/../lib/gcc/pic32mx/4.5.1/../../../../pic32mx/lib\libmchp_peripheral_32MX795F512L.a(eth_ack_packet_lib.o)
 .debug_frame   0x00001908       0x54 c:/program files (x86)/microchip/xc32/v1.10/bin/../lib/gcc/pic32mx/4.5.1/../../../../pic32mx/lib\libmchp_peripheral_32MX795F512L.a(eth_descriptors_add_lib.o)
 .debug_frame   0x0000195c       0x28 c:/program files (x86)/microchip/xc32/v1.10/bin/../lib/gcc/pic32mx/4.5.1/../../../../pic32mx/lib\libmchp_peripheral_32MX795F512L.a(eth_init_lib.o)
 .debug_frame   0x00001984       0x20 c:/program files (x86)/microchip/xc32/v1.10/bin/../lib/gcc/pic32mx/4.5.1/../../../../pic32mx/lib\libmchp_peripheral_32MX795F512L.a(eth_mac_open_lib.o)
 .debug_frame   0x000019a4       0x50 c:/program files (x86)/microchip/xc32/v1.10/bin/../lib/gcc/pic32mx/4.5.1/../../../../pic32mx/lib\libmchp_peripheral_32MX795F512L.a(eth_mac_set_address_max_lib.o)
 .debug_frame   0x000019f4       0x28 c:/program files (x86)/microchip/xc32/v1.10/bin/../lib/gcc/pic32mx/4.5.1/../../../../pic32mx/lib\libmchp_peripheral_32MX795F512L.a(eth_rx_buffers_append_lib.o)
 .debug_frame   0x00001a1c       0x70 c:/program files (x86)/microchip/xc32/v1.10/bin/../lib/gcc/pic32mx/4.5.1/../../../../pic32mx/lib\libmchp_peripheral_32MX795F512L.a(eth_rx_filters_lib.o)
 .debug_frame   0x00001a8c       0x3c c:/program files (x86)/microchip/xc32/v1.10/bin/../lib/gcc/pic32mx/4.5.1/../../../../pic32mx/lib\libmchp_peripheral_32MX795F512L.a(eth_rx_get_packet_lib.o)
 .debug_frame   0x00001ac8       0x20 c:/program files (x86)/microchip/xc32/v1.10/bin/../lib/gcc/pic32mx/4.5.1/../../../../pic32mx/lib\libmchp_peripheral_32MX795F512L.a(eth_rx_set_buffer_size_lib.o)
 .debug_frame   0x00001ae8       0x8c c:/program files (x86)/microchip/xc32/v1.10/bin/../lib/gcc/pic32mx/4.5.1/../../../../pic32mx/lib\libmchp_peripheral_32MX795F512L.a(eth_tx_packet_lib.o)
 .debug_frame   0x00001b74       0x20 c:/program files (x86)/microchip/xc32/v1.10/bin/../lib/gcc/pic32mx/4.5.1/../../../../pic32mx/lib\libmchp_peripheral_32MX795F512L.a(_eth_append_busy_list_lib.o)
 .debug_frame   0x00001b94       0x70 c:/program files (x86)/microchip/xc32/v1.10/bin/../lib/gcc/pic32mx/4.5.1/../../../../pic32mx/lib\libmchp_peripheral_32MX795F512L.a(eth_miim_access.o)
 .debug_frame   0x00001c04       0x30 c:/program files (x86)/microchip/xc32/v1.10/bin/../lib/gcc/pic32mx/4.5.1/../../../../pic32mx/lib\libmchp_peripheral_32MX795F512L.a(pcache.o)
 .debug_frame   0x00001c34       0x20 c:/program files (x86)/microchip/xc32/v1.10/bin/../lib/gcc/pic32mx/4.5.1/../../../../pic32mx/lib\libmchp_peripheral_32MX795F512L.a(int_disable_interrupts_lib.o)
 .debug_frame   0x00001c54       0x20 c:/program files (x86)/microchip/xc32/v1.10/bin/../lib/gcc/pic32mx/4.5.1/../../../../pic32mx/lib\libmchp_peripheral_32MX795F512L.a(int_restore_interrupts_lib.o)
 .debug_frame   0x00001c74       0x28 c:/program files (x86)/microchip/xc32/v1.10/bin/../lib/gcc/pic32mx/4.5.1/../../../../pic32mx/lib\libmchp_peripheral_32MX795F512L.a(int_enable_mv_int_lib.o)
 .debug_frame   0x00001c9c       0xa0 c:/program files (x86)/microchip/xc32/v1.10/bin/../lib/gcc/pic32mx/4.5.1/../../../../pic32mx/lib\libmchp_peripheral_32MX795F512L.a(int_tbl_lib.o)
 .debug_frame   0x00001d3c       0x20 c:/program files (x86)/microchip/xc32/v1.10/bin/../lib/gcc/pic32mx/4.5.1/../../../../pic32mx/lib\libmchp_peripheral_32MX795F512L.a(port_set_pins_digital_in_lib.o)
 .debug_frame   0x00001d5c       0x20 c:/program files (x86)/microchip/xc32/v1.10/bin/../lib/gcc/pic32mx/4.5.1/../../../../pic32mx/lib\libmchp_peripheral_32MX795F512L.a(port_set_pins_digital_out_lib.o)
 .debug_frame   0x00001d7c       0x20 c:/program files (x86)/microchip/xc32/v1.10/bin/../lib/gcc/pic32mx/4.5.1/../../../../pic32mx/lib\libmchp_peripheral_32MX795F512L.a(int_enable_interrupts_lib.o)
 .debug_frame   0x00001d9c       0x20 c:/program files (x86)/microchip/xc32/v1.10/bin/../lib/gcc/pic32mx/4.5.1\libgcc.a(_udivdi3.o)
 .debug_frame   0x00001dbc       0x20 c:/program files (x86)/microchip/xc32/v1.10/bin/../lib/gcc/pic32mx/4.5.1\libgcc.a(_umoddi3.o)
 .debug_frame   0x00001ddc       0x20 c:/program files (x86)/microchip/xc32/v1.10/bin/../lib/gcc/pic32mx/4.5.1/../../../../pic32mx/lib\libpic32.a(default-bootstrap-exception-handler.o)
 .debug_frame   0x00001dfc       0x20 c:/program files (x86)/microchip/xc32/v1.10/bin/../lib/gcc/pic32mx/4.5.1/../../../../pic32mx/lib\libpic32.a(default-on-reset.o)
 .debug_frame   0x00001e1c       0x20 c:/program files (x86)/microchip/xc32/v1.10/bin/../lib/gcc/pic32mx/4.5.1/../../../../pic32mx/lib\libpic32.a(default-on-bootstrap.o)
 .debug_frame   0x00001e3c       0x2c c:/program files (x86)/microchip/xc32/v1.10/bin/../lib/gcc/pic32mx/4.5.1/../../../../pic32mx/lib\libc.a(calloc.o)
 .debug_frame   0x00001e68       0x6c c:/program files (x86)/microchip/xc32/v1.10/bin/../lib/gcc/pic32mx/4.5.1/../../../../pic32mx/lib\libc.a(malloc.o)
 .debug_frame   0x00001ed4       0x20 c:/program files (x86)/microchip/xc32/v1.10/bin/../lib/gcc/pic32mx/4.5.1/../../../../pic32mx/lib\libc.a(strncpy.o)
 .debug_frame   0x00001ef4       0x8c c:/program files (x86)/microchip/xc32/v1.10/bin/../lib/gcc/pic32mx/4.5.1/../../../../pic32mx/lib\libpic32.a(sbrk.o)

.debug_str      0x00000000     0x52e0
 *(.debug_str)
 .debug_str     0x00000000      0x139 build/XC32-PIC32_ETH_SK_ETH795/production/_ext/1472/BerkeleyTCPClientDemo.o
 .debug_str     0x00000139      0x12f build/XC32-PIC32_ETH_SK_ETH795/production/_ext/1472/BerkeleyTCPServerDemo.o
 .debug_str     0x00000268      0x12f build/XC32-PIC32_ETH_SK_ETH795/production/_ext/1472/BerkeleyUDPClientDemo.o
 .debug_str     0x00000397      0x139 build/XC32-PIC32_ETH_SK_ETH795/production/_ext/1472/GenericTCPClient.o
 .debug_str     0x000004d0      0x12f build/XC32-PIC32_ETH_SK_ETH795/production/_ext/1472/GenericTCPServer.o
 .debug_str     0x000005ff      0x139 build/XC32-PIC32_ETH_SK_ETH795/production/_ext/1472/PingDemo.o
 .debug_str     0x00000738      0x12f build/XC32-PIC32_ETH_SK_ETH795/production/_ext/1472/SMTPDemo.o
 .debug_str     0x00000867      0x12f build/XC32-PIC32_ETH_SK_ETH795/production/_ext/1472/UARTConfig.o
 .debug_str     0x00000996      0x12f build/XC32-PIC32_ETH_SK_ETH795/production/_ext/1954962658/ARCFOUR.o
 .debug_str     0x00000ac5      0x147 build/XC32-PIC32_ETH_SK_ETH795/production/_ext/1954962658/ARP.o
 .debug_str     0x00000c0c      0x12f build/XC32-PIC32_ETH_SK_ETH795/production/_ext/1954962658/Announce.o
 .debug_str     0x00000d3b      0x144 build/XC32-PIC32_ETH_SK_ETH795/production/_ext/1954962658/AutoIP.o
 .debug_str     0x00000e7f      0x189 build/XC32-PIC32_ETH_SK_ETH795/production/_ext/1954962658/BerkeleyAPI.o
 .debug_str     0x00001008      0x12f build/XC32-PIC32_ETH_SK_ETH795/production/_ext/1954962658/BigInt.o
 .debug_str     0x00001137      0x177 build/XC32-PIC32_ETH_SK_ETH795/production/_ext/1954962658/DHCP.o
 .debug_str     0x000012ae      0x181 build/XC32-PIC32_ETH_SK_ETH795/production/_ext/1954962658/DHCPs.o
 .debug_str     0x0000142f      0x139 build/XC32-PIC32_ETH_SK_ETH795/production/_ext/1954962658/DNS.o
 .debug_str     0x00001568      0x12f build/XC32-PIC32_ETH_SK_ETH795/production/_ext/1954962658/DNSs.o
 .debug_str     0x00001697      0x12f build/XC32-PIC32_ETH_SK_ETH795/production/_ext/1954962658/Delay.o
 .debug_str     0x000017c6      0x12f build/XC32-PIC32_ETH_SK_ETH795/production/_ext/1954962658/DynDNS.o
 .debug_str     0x000018f5      0x12f build/XC32-PIC32_ETH_SK_ETH795/production/_ext/1954962658/ENC28J60.o
 .debug_str     0x00001a24      0x12f build/XC32-PIC32_ETH_SK_ETH795/production/_ext/1954962658/ENCX24J600.o
 .debug_str     0x00001b53      0x1bd build/XC32-PIC32_ETH_SK_ETH795/production/_ext/1954962658/ETHPIC32ExtPhy.o
 .debug_str     0x00001d10      0x12f build/XC32-PIC32_ETH_SK_ETH795/production/_ext/1954962658/ETHPIC32ExtPhyDP83848.o
 .debug_str     0x00001e3f      0x1d9 build/XC32-PIC32_ETH_SK_ETH795/production/_ext/1954962658/ETHPIC32IntMac.o
 .debug_str     0x00002018      0x12f build/XC32-PIC32_ETH_SK_ETH795/production/_ext/1954962658/FTP.o
 .debug_str     0x00002147      0x12f build/XC32-PIC32_ETH_SK_ETH795/production/_ext/1954962658/FileSystem.o
 .debug_str     0x00002276      0x12f build/XC32-PIC32_ETH_SK_ETH795/production/_ext/1954962658/HTTP2.o
 .debug_str     0x000023a5      0x12f build/XC32-PIC32_ETH_SK_ETH795/production/_ext/1954962658/Hashes.o
 .debug_str     0x000024d4      0x142 build/XC32-PIC32_ETH_SK_ETH795/production/_ext/1954962658/Helpers.o
 .debug_str     0x00002616      0x12f build/XC32-PIC32_ETH_SK_ETH795/production/_ext/1954962658/ICMP.o
 .debug_str     0x00002745      0x142 build/XC32-PIC32_ETH_SK_ETH795/production/_ext/1954962658/IP.o
 .debug_str     0x00002887      0x12f build/XC32-PIC32_ETH_SK_ETH795/production/_ext/1954962658/LCDBlocking.o
 .debug_str     0x000029b6      0x12f build/XC32-PIC32_ETH_SK_ETH795/production/_ext/1954962658/MPFS2.o
 .debug_str     0x00002ae5      0x12f build/XC32-PIC32_ETH_SK_ETH795/production/_ext/1472/MPFSImg2.o
 .debug_str     0x00002c14      0x12f build/XC32-PIC32_ETH_SK_ETH795/production/_ext/1954962658/NBNS.o
 .debug_str     0x00002d43      0x12f build/XC32-PIC32_ETH_SK_ETH795/production/_ext/1954962658/RSA.o
 .debug_str     0x00002e72      0x12f build/XC32-PIC32_ETH_SK_ETH795/production/_ext/1954962658/Random.o
 .debug_str     0x00002fa1      0x12f build/XC32-PIC32_ETH_SK_ETH795/production/_ext/1954962658/Reboot.o
 .debug_str     0x000030d0      0x12f build/XC32-PIC32_ETH_SK_ETH795/production/_ext/1954962658/SMTP.o
 .debug_str     0x000031ff      0x12f build/XC32-PIC32_ETH_SK_ETH795/production/_ext/1954962658/SNMP.o
 .debug_str     0x0000332e      0x12f build/XC32-PIC32_ETH_SK_ETH795/production/_ext/1954962658/SNMPv3.o
 .debug_str     0x0000345d      0x12f build/XC32-PIC32_ETH_SK_ETH795/production/_ext/1954962658/SNMPv3USM.o
 .debug_str     0x0000358c      0x12f build/XC32-PIC32_ETH_SK_ETH795/production/_ext/1954962658/SNTP.o
 .debug_str     0x000036bb      0x12f build/XC32-PIC32_ETH_SK_ETH795/production/_ext/1954962658/SPIEEPROM.o
 .debug_str     0x000037ea      0x12f build/XC32-PIC32_ETH_SK_ETH795/production/_ext/1954962658/SPIFlash.o
 .debug_str     0x00003919      0x12f build/XC32-PIC32_ETH_SK_ETH795/production/_ext/1954962658/SPIRAM.o
 .debug_str     0x00003a48      0x12f build/XC32-PIC32_ETH_SK_ETH795/production/_ext/1954962658/SSL.o
 .debug_str     0x00003b77      0x144 build/XC32-PIC32_ETH_SK_ETH795/production/_ext/1954962658/StackTsk.o
 .debug_str     0x00003cbb      0x1fa build/XC32-PIC32_ETH_SK_ETH795/production/_ext/1954962658/TCP.o
 .debug_str     0x00003eb5      0x12f build/XC32-PIC32_ETH_SK_ETH795/production/_ext/1954962658/TCPPerformanceTest.o
 .debug_str     0x00003fe4      0x12f build/XC32-PIC32_ETH_SK_ETH795/production/_ext/1954962658/TFTPc.o
 .debug_str     0x00004113      0x12f build/XC32-PIC32_ETH_SK_ETH795/production/_ext/1954962658/Telnet.o
 .debug_str     0x00004242      0x14b build/XC32-PIC32_ETH_SK_ETH795/production/_ext/1954962658/Tick.o
 .debug_str     0x0000438d      0x12f build/XC32-PIC32_ETH_SK_ETH795/production/_ext/1954962658/UART.o
 .debug_str     0x000044bc      0x12f build/XC32-PIC32_ETH_SK_ETH795/production/_ext/1954962658/UART2TCPBridge.o
 .debug_str     0x000045eb      0x1ae build/XC32-PIC32_ETH_SK_ETH795/production/_ext/1954962658/UDP.o
 .debug_str     0x00004799      0x12f build/XC32-PIC32_ETH_SK_ETH795/production/_ext/1954962658/UDPPerformanceTest.o
 .debug_str     0x000048c8      0x12f build/XC32-PIC32_ETH_SK_ETH795/production/_ext/1954962658/ZeroconfHelper.o
 .debug_str     0x000049f7      0x12f build/XC32-PIC32_ETH_SK_ETH795/production/_ext/1954962658/ZeroconfLinkLocal.o
 .debug_str     0x00004b26      0x12f build/XC32-PIC32_ETH_SK_ETH795/production/_ext/1954962658/ZeroconfMulticastDNS.o
 .debug_str     0x00004c55      0x12f build/XC32-PIC32_ETH_SK_ETH795/production/_ext/243675038/WFDebugStrings.o
 .debug_str     0x00004d84      0x12f build/XC32-PIC32_ETH_SK_ETH795/production/_ext/1472/CustomHTTPApp.o
 .debug_str     0x00004eb3      0x12f build/XC32-PIC32_ETH_SK_ETH795/production/_ext/1472/CustomSNMPApp.o
 .debug_str     0x00004fe2      0x12f build/XC32-PIC32_ETH_SK_ETH795/production/_ext/1472/CustomSSLCert.o
 .debug_str     0x00005111      0x1cf build/XC32-PIC32_ETH_SK_ETH795/production/_ext/1472/MainDemo.o
 .debug_str     0x000052e0        0x0 c:/program files (x86)/microchip/xc32/v1.10/bin/../lib/gcc/pic32mx/4.5.1/../../../../pic32mx/lib\libmchp_peripheral.a(read_core_timer_lib.o)
 .debug_str     0x000052e0        0x0 c:/program files (x86)/microchip/xc32/v1.10/bin/../lib/gcc/pic32mx/4.5.1/../../../../pic32mx/lib\libmchp_peripheral_32MX795F512L.a(eth_ack_packet_lib.o)
 .debug_str     0x000052e0        0x0 c:/program files (x86)/microchip/xc32/v1.10/bin/../lib/gcc/pic32mx/4.5.1/../../../../pic32mx/lib\libmchp_peripheral_32MX795F512L.a(eth_descriptors_add_lib.o)
 .debug_str     0x000052e0        0x0 c:/program files (x86)/microchip/xc32/v1.10/bin/../lib/gcc/pic32mx/4.5.1/../../../../pic32mx/lib\libmchp_peripheral_32MX795F512L.a(eth_init_lib.o)
 .debug_str     0x000052e0        0x0 c:/program files (x86)/microchip/xc32/v1.10/bin/../lib/gcc/pic32mx/4.5.1/../../../../pic32mx/lib\libmchp_peripheral_32MX795F512L.a(eth_mac_open_lib.o)
 .debug_str     0x000052e0        0x0 c:/program files (x86)/microchip/xc32/v1.10/bin/../lib/gcc/pic32mx/4.5.1/../../../../pic32mx/lib\libmchp_peripheral_32MX795F512L.a(eth_mac_set_address_max_lib.o)
 .debug_str     0x000052e0        0x0 c:/program files (x86)/microchip/xc32/v1.10/bin/../lib/gcc/pic32mx/4.5.1/../../../../pic32mx/lib\libmchp_peripheral_32MX795F512L.a(eth_rx_buffers_append_lib.o)
 .debug_str     0x000052e0        0x0 c:/program files (x86)/microchip/xc32/v1.10/bin/../lib/gcc/pic32mx/4.5.1/../../../../pic32mx/lib\libmchp_peripheral_32MX795F512L.a(eth_rx_filters_lib.o)
 .debug_str     0x000052e0        0x0 c:/program files (x86)/microchip/xc32/v1.10/bin/../lib/gcc/pic32mx/4.5.1/../../../../pic32mx/lib\libmchp_peripheral_32MX795F512L.a(eth_rx_get_packet_lib.o)
 .debug_str     0x000052e0        0x0 c:/program files (x86)/microchip/xc32/v1.10/bin/../lib/gcc/pic32mx/4.5.1/../../../../pic32mx/lib\libmchp_peripheral_32MX795F512L.a(eth_rx_set_buffer_size_lib.o)
 .debug_str     0x000052e0        0x0 c:/program files (x86)/microchip/xc32/v1.10/bin/../lib/gcc/pic32mx/4.5.1/../../../../pic32mx/lib\libmchp_peripheral_32MX795F512L.a(eth_tx_packet_lib.o)
 .debug_str     0x000052e0        0x0 c:/program files (x86)/microchip/xc32/v1.10/bin/../lib/gcc/pic32mx/4.5.1/../../../../pic32mx/lib\libmchp_peripheral_32MX795F512L.a(_eth_append_busy_list_lib.o)
 .debug_str     0x000052e0        0x0 c:/program files (x86)/microchip/xc32/v1.10/bin/../lib/gcc/pic32mx/4.5.1/../../../../pic32mx/lib\libmchp_peripheral_32MX795F512L.a(eth_miim_access.o)
 .debug_str     0x000052e0        0x0 c:/program files (x86)/microchip/xc32/v1.10/bin/../lib/gcc/pic32mx/4.5.1/../../../../pic32mx/lib\libmchp_peripheral_32MX795F512L.a(pcache.o)
 .debug_str     0x000052e0        0x0 c:/program files (x86)/microchip/xc32/v1.10/bin/../lib/gcc/pic32mx/4.5.1/../../../../pic32mx/lib\libmchp_peripheral_32MX795F512L.a(int_disable_interrupts_lib.o)
 .debug_str     0x000052e0        0x0 c:/program files (x86)/microchip/xc32/v1.10/bin/../lib/gcc/pic32mx/4.5.1/../../../../pic32mx/lib\libmchp_peripheral_32MX795F512L.a(int_restore_interrupts_lib.o)
 .debug_str     0x000052e0        0x0 c:/program files (x86)/microchip/xc32/v1.10/bin/../lib/gcc/pic32mx/4.5.1/../../../../pic32mx/lib\libmchp_peripheral_32MX795F512L.a(int_enable_mv_int_lib.o)
 .debug_str     0x000052e0        0x0 c:/program files (x86)/microchip/xc32/v1.10/bin/../lib/gcc/pic32mx/4.5.1/../../../../pic32mx/lib\libmchp_peripheral_32MX795F512L.a(int_tbl_lib.o)
 .debug_str     0x000052e0        0x0 c:/program files (x86)/microchip/xc32/v1.10/bin/../lib/gcc/pic32mx/4.5.1/../../../../pic32mx/lib\libmchp_peripheral_32MX795F512L.a(port_set_pins_digital_in_lib.o)
 .debug_str     0x000052e0        0x0 c:/program files (x86)/microchip/xc32/v1.10/bin/../lib/gcc/pic32mx/4.5.1/../../../../pic32mx/lib\libmchp_peripheral_32MX795F512L.a(port_set_pins_digital_out_lib.o)
 .debug_str     0x000052e0        0x0 c:/program files (x86)/microchip/xc32/v1.10/bin/../lib/gcc/pic32mx/4.5.1/../../../../pic32mx/lib\libmchp_peripheral_32MX795F512L.a(_ports_tbl_libp.o)
 .debug_str     0x000052e0        0x0 c:/program files (x86)/microchip/xc32/v1.10/bin/../lib/gcc/pic32mx/4.5.1/../../../../pic32mx/lib\libmchp_peripheral_32MX795F512L.a(int_enable_interrupts_lib.o)
 .debug_str     0x000052e0        0x0 c:/program files (x86)/microchip/xc32/v1.10/bin/../lib/gcc/pic32mx/4.5.1\libgcc.a(_udivdi3.o)
 .debug_str     0x000052e0        0x0 c:/program files (x86)/microchip/xc32/v1.10/bin/../lib/gcc/pic32mx/4.5.1\libgcc.a(_umoddi3.o)
 .debug_str     0x000052e0        0x0 c:/program files (x86)/microchip/xc32/v1.10/bin/../lib/gcc/pic32mx/4.5.1/../../../../pic32mx/lib\libpic32.a(default-bootstrap-exception-handler.o)
 .debug_str     0x000052e0        0x0 c:/program files (x86)/microchip/xc32/v1.10/bin/../lib/gcc/pic32mx/4.5.1/../../../../pic32mx/lib\libpic32.a(default-on-reset.o)
 .debug_str     0x000052e0        0x0 c:/program files (x86)/microchip/xc32/v1.10/bin/../lib/gcc/pic32mx/4.5.1/../../../../pic32mx/lib\libpic32.a(default-on-bootstrap.o)
 .debug_str     0x000052e0        0x0 c:/program files (x86)/microchip/xc32/v1.10/bin/../lib/gcc/pic32mx/4.5.1/../../../../pic32mx/lib\libc.a(calloc.o)
 .debug_str     0x000052e0        0x0 c:/program files (x86)/microchip/xc32/v1.10/bin/../lib/gcc/pic32mx/4.5.1/../../../../pic32mx/lib\libc.a(malloc.o)
 .debug_str     0x000052e0        0x0 c:/program files (x86)/microchip/xc32/v1.10/bin/../lib/gcc/pic32mx/4.5.1/../../../../pic32mx/lib\libc.a(strncpy.o)
 .debug_str     0x000052e0        0x0 c:/program files (x86)/microchip/xc32/v1.10/bin/../lib/gcc/pic32mx/4.5.1/../../../../pic32mx/lib\libpic32.a(sbrk.o)
 .debug_str     0x000052e0        0x0 c:/program files (x86)/microchip/xc32/v1.10/bin/../lib/gcc/pic32mx/4.5.1/../../../../pic32mx/lib\libpic32.a(errno.o)

.debug_loc      0x00000000     0x1547
 *(.debug_loc)
 .debug_loc     0x00000000      0xaaf c:/program files (x86)/microchip/xc32/v1.10/bin/../lib/gcc/pic32mx/4.5.1\libgcc.a(_udivdi3.o)
 .debug_loc     0x00000aaf      0xa98 c:/program files (x86)/microchip/xc32/v1.10/bin/../lib/gcc/pic32mx/4.5.1\libgcc.a(_umoddi3.o)

.debug_macinfo
 *(.debug_macinfo)

.debug_weaknames
 *(.debug_weaknames)

.debug_funcnames
 *(.debug_funcnames)

.debug_typenames
 *(.debug_typenames)

.debug_varnames
 *(.debug_varnames)

.debug_pubtypes
                0x00000000     0x4b9c
 *(.debug_pubtypes)
 .debug_pubtypes
                0x00000000      0x164 build/XC32-PIC32_ETH_SK_ETH795/production/_ext/1472/BerkeleyTCPClientDemo.o
 .debug_pubtypes
                0x00000164      0x137 build/XC32-PIC32_ETH_SK_ETH795/production/_ext/1472/BerkeleyTCPServerDemo.o
 .debug_pubtypes
                0x0000029b      0x174 build/XC32-PIC32_ETH_SK_ETH795/production/_ext/1472/BerkeleyUDPClientDemo.o
 .debug_pubtypes
                0x0000040f      0x12e build/XC32-PIC32_ETH_SK_ETH795/production/_ext/1472/GenericTCPClient.o
 .debug_pubtypes
                0x0000053d      0x108 build/XC32-PIC32_ETH_SK_ETH795/production/_ext/1472/GenericTCPServer.o
 .debug_pubtypes
                0x00000645      0x11f build/XC32-PIC32_ETH_SK_ETH795/production/_ext/1472/PingDemo.o
 .debug_pubtypes
                0x00000764       0xe7 build/XC32-PIC32_ETH_SK_ETH795/production/_ext/1472/SMTPDemo.o
 .debug_pubtypes
                0x0000084b       0xe7 build/XC32-PIC32_ETH_SK_ETH795/production/_ext/1472/UARTConfig.o
 .debug_pubtypes
                0x00000932       0xe7 build/XC32-PIC32_ETH_SK_ETH795/production/_ext/1954962658/ARCFOUR.o
 .debug_pubtypes
                0x00000a19      0x17e build/XC32-PIC32_ETH_SK_ETH795/production/_ext/1954962658/ARP.o
 .debug_pubtypes
                0x00000b97       0xe7 build/XC32-PIC32_ETH_SK_ETH795/production/_ext/1954962658/Announce.o
 .debug_pubtypes
                0x00000c7e      0x1ae build/XC32-PIC32_ETH_SK_ETH795/production/_ext/1954962658/AutoIP.o
 .debug_pubtypes
                0x00000e2c      0x21b build/XC32-PIC32_ETH_SK_ETH795/production/_ext/1954962658/BerkeleyAPI.o
 .debug_pubtypes
                0x00001047       0xe7 build/XC32-PIC32_ETH_SK_ETH795/production/_ext/1954962658/BigInt.o
 .debug_pubtypes
                0x0000112e      0x1d8 build/XC32-PIC32_ETH_SK_ETH795/production/_ext/1954962658/DHCP.o
 .debug_pubtypes
                0x00001306      0x1f7 build/XC32-PIC32_ETH_SK_ETH795/production/_ext/1954962658/DHCPs.o
 .debug_pubtypes
                0x000014fd      0x1ad build/XC32-PIC32_ETH_SK_ETH795/production/_ext/1954962658/DNS.o
 .debug_pubtypes
                0x000016aa       0xe7 build/XC32-PIC32_ETH_SK_ETH795/production/_ext/1954962658/DNSs.o
 .debug_pubtypes
                0x00001791       0xfa build/XC32-PIC32_ETH_SK_ETH795/production/_ext/1954962658/Delay.o
 .debug_pubtypes
                0x0000188b       0xe7 build/XC32-PIC32_ETH_SK_ETH795/production/_ext/1954962658/DynDNS.o
 .debug_pubtypes
                0x00001972       0xe7 build/XC32-PIC32_ETH_SK_ETH795/production/_ext/1954962658/ENC28J60.o
 .debug_pubtypes
                0x00001a59       0xe7 build/XC32-PIC32_ETH_SK_ETH795/production/_ext/1954962658/ENCX24J600.o
 .debug_pubtypes
                0x00001b40      0x1ae build/XC32-PIC32_ETH_SK_ETH795/production/_ext/1954962658/ETHPIC32ExtPhy.o
 .debug_pubtypes
                0x00001cee      0x119 build/XC32-PIC32_ETH_SK_ETH795/production/_ext/1954962658/ETHPIC32ExtPhyDP83848.o
 .debug_pubtypes
                0x00001e07      0x1f6 build/XC32-PIC32_ETH_SK_ETH795/production/_ext/1954962658/ETHPIC32IntMac.o
 .debug_pubtypes
                0x00001ffd       0xe7 build/XC32-PIC32_ETH_SK_ETH795/production/_ext/1954962658/FTP.o
 .debug_pubtypes
                0x000020e4       0xe7 build/XC32-PIC32_ETH_SK_ETH795/production/_ext/1954962658/FileSystem.o
 .debug_pubtypes
                0x000021cb       0xe7 build/XC32-PIC32_ETH_SK_ETH795/production/_ext/1954962658/HTTP2.o
 .debug_pubtypes
                0x000022b2       0xe7 build/XC32-PIC32_ETH_SK_ETH795/production/_ext/1954962658/Hashes.o
 .debug_pubtypes
                0x00002399      0x167 build/XC32-PIC32_ETH_SK_ETH795/production/_ext/1954962658/Helpers.o
 .debug_pubtypes
                0x00002500      0x16f build/XC32-PIC32_ETH_SK_ETH795/production/_ext/1954962658/ICMP.o
 .debug_pubtypes
                0x0000266f      0x18c build/XC32-PIC32_ETH_SK_ETH795/production/_ext/1954962658/IP.o
 .debug_pubtypes
                0x000027fb       0xe7 build/XC32-PIC32_ETH_SK_ETH795/production/_ext/1954962658/LCDBlocking.o
 .debug_pubtypes
                0x000028e2       0xe7 build/XC32-PIC32_ETH_SK_ETH795/production/_ext/1954962658/MPFS2.o
 .debug_pubtypes
                0x000029c9       0xe7 build/XC32-PIC32_ETH_SK_ETH795/production/_ext/1472/MPFSImg2.o
 .debug_pubtypes
                0x00002ab0       0xe7 build/XC32-PIC32_ETH_SK_ETH795/production/_ext/1954962658/NBNS.o
 .debug_pubtypes
                0x00002b97       0xe7 build/XC32-PIC32_ETH_SK_ETH795/production/_ext/1954962658/RSA.o
 .debug_pubtypes
                0x00002c7e       0xe7 build/XC32-PIC32_ETH_SK_ETH795/production/_ext/1954962658/Random.o
 .debug_pubtypes
                0x00002d65       0xe7 build/XC32-PIC32_ETH_SK_ETH795/production/_ext/1954962658/Reboot.o
 .debug_pubtypes
                0x00002e4c       0xe7 build/XC32-PIC32_ETH_SK_ETH795/production/_ext/1954962658/SMTP.o
 .debug_pubtypes
                0x00002f33       0xe7 build/XC32-PIC32_ETH_SK_ETH795/production/_ext/1954962658/SNMP.o
 .debug_pubtypes
                0x0000301a       0xe7 build/XC32-PIC32_ETH_SK_ETH795/production/_ext/1954962658/SNMPv3.o
 .debug_pubtypes
                0x00003101       0xe7 build/XC32-PIC32_ETH_SK_ETH795/production/_ext/1954962658/SNMPv3USM.o
 .debug_pubtypes
                0x000031e8       0xe7 build/XC32-PIC32_ETH_SK_ETH795/production/_ext/1954962658/SNTP.o
 .debug_pubtypes
                0x000032cf       0xe7 build/XC32-PIC32_ETH_SK_ETH795/production/_ext/1954962658/SPIEEPROM.o
 .debug_pubtypes
                0x000033b6       0xe7 build/XC32-PIC32_ETH_SK_ETH795/production/_ext/1954962658/SPIFlash.o
 .debug_pubtypes
                0x0000349d       0xe7 build/XC32-PIC32_ETH_SK_ETH795/production/_ext/1954962658/SPIRAM.o
 .debug_pubtypes
                0x00003584       0xe7 build/XC32-PIC32_ETH_SK_ETH795/production/_ext/1954962658/SSL.o
 .debug_pubtypes
                0x0000366b      0x17c build/XC32-PIC32_ETH_SK_ETH795/production/_ext/1954962658/StackTsk.o
 .debug_pubtypes
                0x000037e7      0x224 build/XC32-PIC32_ETH_SK_ETH795/production/_ext/1954962658/TCP.o
 .debug_pubtypes
                0x00003a0b       0xe7 build/XC32-PIC32_ETH_SK_ETH795/production/_ext/1954962658/TCPPerformanceTest.o
 .debug_pubtypes
                0x00003af2       0xe7 build/XC32-PIC32_ETH_SK_ETH795/production/_ext/1954962658/TFTPc.o
 .debug_pubtypes
                0x00003bd9       0xe7 build/XC32-PIC32_ETH_SK_ETH795/production/_ext/1954962658/Telnet.o
 .debug_pubtypes
                0x00003cc0      0x144 build/XC32-PIC32_ETH_SK_ETH795/production/_ext/1954962658/Tick.o
 .debug_pubtypes
                0x00003e04       0xe7 build/XC32-PIC32_ETH_SK_ETH795/production/_ext/1954962658/UART.o
 .debug_pubtypes
                0x00003eeb       0xe7 build/XC32-PIC32_ETH_SK_ETH795/production/_ext/1954962658/UART2TCPBridge.o
 .debug_pubtypes
                0x00003fd2      0x1eb build/XC32-PIC32_ETH_SK_ETH795/production/_ext/1954962658/UDP.o
 .debug_pubtypes
                0x000041bd       0xe7 build/XC32-PIC32_ETH_SK_ETH795/production/_ext/1954962658/UDPPerformanceTest.o
 .debug_pubtypes
                0x000042a4       0xe7 build/XC32-PIC32_ETH_SK_ETH795/production/_ext/1954962658/ZeroconfHelper.o
 .debug_pubtypes
                0x0000438b       0xe7 build/XC32-PIC32_ETH_SK_ETH795/production/_ext/1954962658/ZeroconfLinkLocal.o
 .debug_pubtypes
                0x00004472       0xe7 build/XC32-PIC32_ETH_SK_ETH795/production/_ext/1954962658/ZeroconfMulticastDNS.o
 .debug_pubtypes
                0x00004559       0xe7 build/XC32-PIC32_ETH_SK_ETH795/production/_ext/243675038/WFDebugStrings.o
 .debug_pubtypes
                0x00004640       0xe7 build/XC32-PIC32_ETH_SK_ETH795/production/_ext/1472/CustomHTTPApp.o
 .debug_pubtypes
                0x00004727       0xe7 build/XC32-PIC32_ETH_SK_ETH795/production/_ext/1472/CustomSNMPApp.o
 .debug_pubtypes
                0x0000480e       0xe7 build/XC32-PIC32_ETH_SK_ETH795/production/_ext/1472/CustomSSLCert.o
 .debug_pubtypes
                0x000048f5      0x1f5 build/XC32-PIC32_ETH_SK_ETH795/production/_ext/1472/MainDemo.o
 .debug_pubtypes
                0x00004aea       0x59 c:/program files (x86)/microchip/xc32/v1.10/bin/../lib/gcc/pic32mx/4.5.1\libgcc.a(_udivdi3.o)
 .debug_pubtypes
                0x00004b43       0x59 c:/program files (x86)/microchip/xc32/v1.10/bin/../lib/gcc/pic32mx/4.5.1\libgcc.a(_umoddi3.o)

.debug_ranges   0x00000000      0x4f0
 *(.debug_ranges)
 .debug_ranges  0x00000000       0x18 build/XC32-PIC32_ETH_SK_ETH795/production/_ext/1954962658/DHCPs.o
 .debug_ranges  0x00000018       0x18 build/XC32-PIC32_ETH_SK_ETH795/production/_ext/1954962658/TCP.o
 .debug_ranges  0x00000030       0x18 build/XC32-PIC32_ETH_SK_ETH795/production/_ext/1954962658/UDP.o
 .debug_ranges  0x00000048       0x30 build/XC32-PIC32_ETH_SK_ETH795/production/_ext/1472/MainDemo.o
 .debug_ranges  0x00000078       0x10 c:/program files (x86)/microchip/xc32/v1.10/bin/../lib/gcc/pic32mx/4.5.1/../../../../pic32mx/lib\libmchp_peripheral.a(read_core_timer_lib.o)
 .debug_ranges  0x00000088       0x38 c:/program files (x86)/microchip/xc32/v1.10/bin/../lib/gcc/pic32mx/4.5.1/../../../../pic32mx/lib\libmchp_peripheral_32MX795F512L.a(eth_ack_packet_lib.o)
 .debug_ranges  0x000000c0       0x18 c:/program files (x86)/microchip/xc32/v1.10/bin/../lib/gcc/pic32mx/4.5.1/../../../../pic32mx/lib\libmchp_peripheral_32MX795F512L.a(eth_descriptors_add_lib.o)
 .debug_ranges  0x000000d8       0x10 c:/program files (x86)/microchip/xc32/v1.10/bin/../lib/gcc/pic32mx/4.5.1/../../../../pic32mx/lib\libmchp_peripheral_32MX795F512L.a(eth_init_lib.o)
 .debug_ranges  0x000000e8       0x10 c:/program files (x86)/microchip/xc32/v1.10/bin/../lib/gcc/pic32mx/4.5.1/../../../../pic32mx/lib\libmchp_peripheral_32MX795F512L.a(eth_mac_open_lib.o)
 .debug_ranges  0x000000f8       0x20 c:/program files (x86)/microchip/xc32/v1.10/bin/../lib/gcc/pic32mx/4.5.1/../../../../pic32mx/lib\libmchp_peripheral_32MX795F512L.a(eth_mac_set_address_max_lib.o)
 .debug_ranges  0x00000118       0x10 c:/program files (x86)/microchip/xc32/v1.10/bin/../lib/gcc/pic32mx/4.5.1/../../../../pic32mx/lib\libmchp_peripheral_32MX795F512L.a(eth_rx_buffers_append_lib.o)
 .debug_ranges  0x00000128       0x38 c:/program files (x86)/microchip/xc32/v1.10/bin/../lib/gcc/pic32mx/4.5.1/../../../../pic32mx/lib\libmchp_peripheral_32MX795F512L.a(eth_rx_filters_lib.o)
 .debug_ranges  0x00000160       0x18 c:/program files (x86)/microchip/xc32/v1.10/bin/../lib/gcc/pic32mx/4.5.1/../../../../pic32mx/lib\libmchp_peripheral_32MX795F512L.a(eth_rx_get_packet_lib.o)
 .debug_ranges  0x00000178       0x10 c:/program files (x86)/microchip/xc32/v1.10/bin/../lib/gcc/pic32mx/4.5.1/../../../../pic32mx/lib\libmchp_peripheral_32MX795F512L.a(eth_rx_set_buffer_size_lib.o)
 .debug_ranges  0x00000188       0x38 c:/program files (x86)/microchip/xc32/v1.10/bin/../lib/gcc/pic32mx/4.5.1/../../../../pic32mx/lib\libmchp_peripheral_32MX795F512L.a(eth_tx_packet_lib.o)
 .debug_ranges  0x000001c0       0x10 c:/program files (x86)/microchip/xc32/v1.10/bin/../lib/gcc/pic32mx/4.5.1/../../../../pic32mx/lib\libmchp_peripheral_32MX795F512L.a(_eth_append_busy_list_lib.o)
 .debug_ranges  0x000001d0       0x38 c:/program files (x86)/microchip/xc32/v1.10/bin/../lib/gcc/pic32mx/4.5.1/../../../../pic32mx/lib\libmchp_peripheral_32MX795F512L.a(eth_miim_access.o)
 .debug_ranges  0x00000208       0x18 c:/program files (x86)/microchip/xc32/v1.10/bin/../lib/gcc/pic32mx/4.5.1/../../../../pic32mx/lib\libmchp_peripheral_32MX795F512L.a(pcache.o)
 .debug_ranges  0x00000220       0x10 c:/program files (x86)/microchip/xc32/v1.10/bin/../lib/gcc/pic32mx/4.5.1/../../../../pic32mx/lib\libmchp_peripheral_32MX795F512L.a(int_disable_interrupts_lib.o)
 .debug_ranges  0x00000230       0x10 c:/program files (x86)/microchip/xc32/v1.10/bin/../lib/gcc/pic32mx/4.5.1/../../../../pic32mx/lib\libmchp_peripheral_32MX795F512L.a(int_restore_interrupts_lib.o)
 .debug_ranges  0x00000240       0x10 c:/program files (x86)/microchip/xc32/v1.10/bin/../lib/gcc/pic32mx/4.5.1/../../../../pic32mx/lib\libmchp_peripheral_32MX795F512L.a(int_enable_mv_int_lib.o)
 .debug_ranges  0x00000250       0x50 c:/program files (x86)/microchip/xc32/v1.10/bin/../lib/gcc/pic32mx/4.5.1/../../../../pic32mx/lib\libmchp_peripheral_32MX795F512L.a(int_tbl_lib.o)
 .debug_ranges  0x000002a0       0x10 c:/program files (x86)/microchip/xc32/v1.10/bin/../lib/gcc/pic32mx/4.5.1/../../../../pic32mx/lib\libmchp_peripheral_32MX795F512L.a(port_set_pins_digital_in_lib.o)
 .debug_ranges  0x000002b0       0x10 c:/program files (x86)/microchip/xc32/v1.10/bin/../lib/gcc/pic32mx/4.5.1/../../../../pic32mx/lib\libmchp_peripheral_32MX795F512L.a(port_set_pins_digital_out_lib.o)
 .debug_ranges  0x000002c0       0x10 c:/program files (x86)/microchip/xc32/v1.10/bin/../lib/gcc/pic32mx/4.5.1/../../../../pic32mx/lib\libmchp_peripheral_32MX795F512L.a(int_enable_interrupts_lib.o)
 .debug_ranges  0x000002d0       0xc0 c:/program files (x86)/microchip/xc32/v1.10/bin/../lib/gcc/pic32mx/4.5.1\libgcc.a(_udivdi3.o)
 .debug_ranges  0x00000390       0xc0 c:/program files (x86)/microchip/xc32/v1.10/bin/../lib/gcc/pic32mx/4.5.1\libgcc.a(_umoddi3.o)
 .debug_ranges  0x00000450       0x10 c:/program files (x86)/microchip/xc32/v1.10/bin/../lib/gcc/pic32mx/4.5.1/../../../../pic32mx/lib\libpic32.a(default-bootstrap-exception-handler.o)
 .debug_ranges  0x00000460       0x10 c:/program files (x86)/microchip/xc32/v1.10/bin/../lib/gcc/pic32mx/4.5.1/../../../../pic32mx/lib\libpic32.a(default-on-reset.o)
 .debug_ranges  0x00000470       0x10 c:/program files (x86)/microchip/xc32/v1.10/bin/../lib/gcc/pic32mx/4.5.1/../../../../pic32mx/lib\libpic32.a(default-on-bootstrap.o)
 .debug_ranges  0x00000480       0x10 c:/program files (x86)/microchip/xc32/v1.10/bin/../lib/gcc/pic32mx/4.5.1/../../../../pic32mx/lib\libc.a(calloc.o)
 .debug_ranges  0x00000490       0x20 c:/program files (x86)/microchip/xc32/v1.10/bin/../lib/gcc/pic32mx/4.5.1/../../../../pic32mx/lib\libc.a(malloc.o)
 .debug_ranges  0x000004b0       0x10 c:/program files (x86)/microchip/xc32/v1.10/bin/../lib/gcc/pic32mx/4.5.1/../../../../pic32mx/lib\libc.a(strncpy.o)
 .debug_ranges  0x000004c0       0x30 c:/program files (x86)/microchip/xc32/v1.10/bin/../lib/gcc/pic32mx/4.5.1/../../../../pic32mx/lib\libpic32.a(sbrk.o)

.gnu.attributes
                0x00000000       0x10
 *(.gnu.attributes)
 .gnu.attributes
                0x00000000       0x10 build/XC32-PIC32_ETH_SK_ETH795/production/_ext/1472/BerkeleyTCPClientDemo.o
 .gnu.attributes
                0x00000010       0x10 build/XC32-PIC32_ETH_SK_ETH795/production/_ext/1472/BerkeleyTCPServerDemo.o
 .gnu.attributes
                0x00000020       0x10 build/XC32-PIC32_ETH_SK_ETH795/production/_ext/1472/BerkeleyUDPClientDemo.o
 .gnu.attributes
                0x00000030       0x10 build/XC32-PIC32_ETH_SK_ETH795/production/_ext/1472/GenericTCPClient.o
 .gnu.attributes
                0x00000040       0x10 build/XC32-PIC32_ETH_SK_ETH795/production/_ext/1472/GenericTCPServer.o
 .gnu.attributes
                0x00000050       0x10 build/XC32-PIC32_ETH_SK_ETH795/production/_ext/1472/PingDemo.o
 .gnu.attributes
                0x00000060       0x10 build/XC32-PIC32_ETH_SK_ETH795/production/_ext/1472/SMTPDemo.o
 .gnu.attributes
                0x00000070       0x10 build/XC32-PIC32_ETH_SK_ETH795/production/_ext/1472/UARTConfig.o
 .gnu.attributes
                0x00000080       0x10 build/XC32-PIC32_ETH_SK_ETH795/production/_ext/1954962658/ARCFOUR.o
 .gnu.attributes
                0x00000090       0x10 build/XC32-PIC32_ETH_SK_ETH795/production/_ext/1954962658/ARP.o
 .gnu.attributes
                0x000000a0       0x10 build/XC32-PIC32_ETH_SK_ETH795/production/_ext/1954962658/Announce.o
 .gnu.attributes
                0x000000b0       0x10 build/XC32-PIC32_ETH_SK_ETH795/production/_ext/1954962658/AutoIP.o
 .gnu.attributes
                0x000000c0       0x10 build/XC32-PIC32_ETH_SK_ETH795/production/_ext/1954962658/BerkeleyAPI.o
 .gnu.attributes
                0x000000d0       0x10 build/XC32-PIC32_ETH_SK_ETH795/production/_ext/1954962658/BigInt.o
 .gnu.attributes
                0x000000e0       0x10 build/XC32-PIC32_ETH_SK_ETH795/production/_ext/1954962658/DHCP.o
 .gnu.attributes
                0x000000f0       0x10 build/XC32-PIC32_ETH_SK_ETH795/production/_ext/1954962658/DHCPs.o
 .gnu.attributes
                0x00000100       0x10 build/XC32-PIC32_ETH_SK_ETH795/production/_ext/1954962658/DNS.o
 .gnu.attributes
                0x00000110       0x10 build/XC32-PIC32_ETH_SK_ETH795/production/_ext/1954962658/DNSs.o
 .gnu.attributes
                0x00000120       0x10 build/XC32-PIC32_ETH_SK_ETH795/production/_ext/1954962658/Delay.o
 .gnu.attributes
                0x00000130       0x10 build/XC32-PIC32_ETH_SK_ETH795/production/_ext/1954962658/DynDNS.o
 .gnu.attributes
                0x00000140       0x10 build/XC32-PIC32_ETH_SK_ETH795/production/_ext/1954962658/ENC28J60.o
 .gnu.attributes
                0x00000150       0x10 build/XC32-PIC32_ETH_SK_ETH795/production/_ext/1954962658/ENCX24J600.o
 .gnu.attributes
                0x00000160       0x10 build/XC32-PIC32_ETH_SK_ETH795/production/_ext/1954962658/ETHPIC32ExtPhy.o
 .gnu.attributes
                0x00000170       0x10 build/XC32-PIC32_ETH_SK_ETH795/production/_ext/1954962658/ETHPIC32ExtPhyDP83848.o
 .gnu.attributes
                0x00000180       0x10 build/XC32-PIC32_ETH_SK_ETH795/production/_ext/1954962658/ETHPIC32IntMac.o
 .gnu.attributes
                0x00000190       0x10 build/XC32-PIC32_ETH_SK_ETH795/production/_ext/1954962658/FTP.o
 .gnu.attributes
                0x000001a0       0x10 build/XC32-PIC32_ETH_SK_ETH795/production/_ext/1954962658/FileSystem.o
 .gnu.attributes
                0x000001b0       0x10 build/XC32-PIC32_ETH_SK_ETH795/production/_ext/1954962658/HTTP2.o
 .gnu.attributes
                0x000001c0       0x10 build/XC32-PIC32_ETH_SK_ETH795/production/_ext/1954962658/Hashes.o
 .gnu.attributes
                0x000001d0       0x10 build/XC32-PIC32_ETH_SK_ETH795/production/_ext/1954962658/Helpers.o
 .gnu.attributes
                0x000001e0       0x10 build/XC32-PIC32_ETH_SK_ETH795/production/_ext/1954962658/ICMP.o
 .gnu.attributes
                0x000001f0       0x10 build/XC32-PIC32_ETH_SK_ETH795/production/_ext/1954962658/IP.o
 .gnu.attributes
                0x00000200       0x10 build/XC32-PIC32_ETH_SK_ETH795/production/_ext/1954962658/LCDBlocking.o
 .gnu.attributes
                0x00000210       0x10 build/XC32-PIC32_ETH_SK_ETH795/production/_ext/1954962658/MPFS2.o
 .gnu.attributes
                0x00000220       0x10 build/XC32-PIC32_ETH_SK_ETH795/production/_ext/1472/MPFSImg2.o
 .gnu.attributes
                0x00000230       0x10 build/XC32-PIC32_ETH_SK_ETH795/production/_ext/1954962658/NBNS.o
 .gnu.attributes
                0x00000240       0x10 build/XC32-PIC32_ETH_SK_ETH795/production/_ext/1954962658/RSA.o
 .gnu.attributes
                0x00000250       0x10 build/XC32-PIC32_ETH_SK_ETH795/production/_ext/1954962658/Random.o
 .gnu.attributes
                0x00000260       0x10 build/XC32-PIC32_ETH_SK_ETH795/production/_ext/1954962658/Reboot.o
 .gnu.attributes
                0x00000270       0x10 build/XC32-PIC32_ETH_SK_ETH795/production/_ext/1954962658/SMTP.o
 .gnu.attributes
                0x00000280       0x10 build/XC32-PIC32_ETH_SK_ETH795/production/_ext/1954962658/SNMP.o
 .gnu.attributes
                0x00000290       0x10 build/XC32-PIC32_ETH_SK_ETH795/production/_ext/1954962658/SNMPv3.o
 .gnu.attributes
                0x000002a0       0x10 build/XC32-PIC32_ETH_SK_ETH795/production/_ext/1954962658/SNMPv3USM.o
 .gnu.attributes
                0x000002b0       0x10 build/XC32-PIC32_ETH_SK_ETH795/production/_ext/1954962658/SNTP.o
 .gnu.attributes
                0x000002c0       0x10 build/XC32-PIC32_ETH_SK_ETH795/production/_ext/1954962658/SPIEEPROM.o
 .gnu.attributes
                0x000002d0       0x10 build/XC32-PIC32_ETH_SK_ETH795/production/_ext/1954962658/SPIFlash.o
 .gnu.attributes
                0x000002e0       0x10 build/XC32-PIC32_ETH_SK_ETH795/production/_ext/1954962658/SPIRAM.o
 .gnu.attributes
                0x000002f0       0x10 build/XC32-PIC32_ETH_SK_ETH795/production/_ext/1954962658/SSL.o
 .gnu.attributes
                0x00000300       0x10 build/XC32-PIC32_ETH_SK_ETH795/production/_ext/1954962658/StackTsk.o
 .gnu.attributes
                0x00000310       0x10 build/XC32-PIC32_ETH_SK_ETH795/production/_ext/1954962658/TCP.o
 .gnu.attributes
                0x00000320       0x10 build/XC32-PIC32_ETH_SK_ETH795/production/_ext/1954962658/TCPPerformanceTest.o
 .gnu.attributes
                0x00000330       0x10 build/XC32-PIC32_ETH_SK_ETH795/production/_ext/1954962658/TFTPc.o
 .gnu.attributes
                0x00000340       0x10 build/XC32-PIC32_ETH_SK_ETH795/production/_ext/1954962658/Telnet.o
 .gnu.attributes
                0x00000350       0x10 build/XC32-PIC32_ETH_SK_ETH795/production/_ext/1954962658/Tick.o
 .gnu.attributes
                0x00000360       0x10 build/XC32-PIC32_ETH_SK_ETH795/production/_ext/1954962658/UART.o
 .gnu.attributes
                0x00000370       0x10 build/XC32-PIC32_ETH_SK_ETH795/production/_ext/1954962658/UART2TCPBridge.o
 .gnu.attributes
                0x00000380       0x10 build/XC32-PIC32_ETH_SK_ETH795/production/_ext/1954962658/UDP.o
 .gnu.attributes
                0x00000390       0x10 build/XC32-PIC32_ETH_SK_ETH795/production/_ext/1954962658/UDPPerformanceTest.o
 .gnu.attributes
                0x000003a0       0x10 build/XC32-PIC32_ETH_SK_ETH795/production/_ext/1954962658/ZeroconfHelper.o
 .gnu.attributes
                0x000003b0       0x10 build/XC32-PIC32_ETH_SK_ETH795/production/_ext/1954962658/ZeroconfLinkLocal.o
 .gnu.attributes
                0x000003c0       0x10 build/XC32-PIC32_ETH_SK_ETH795/production/_ext/1954962658/ZeroconfMulticastDNS.o
 .gnu.attributes
                0x000003d0       0x10 build/XC32-PIC32_ETH_SK_ETH795/production/_ext/243675038/WFDebugStrings.o
 .gnu.attributes
                0x000003e0       0x10 build/XC32-PIC32_ETH_SK_ETH795/production/_ext/1472/CustomHTTPApp.o
 .gnu.attributes
                0x000003f0       0x10 build/XC32-PIC32_ETH_SK_ETH795/production/_ext/1472/CustomSNMPApp.o
 .gnu.attributes
                0x00000400       0x10 build/XC32-PIC32_ETH_SK_ETH795/production/_ext/1472/CustomSSLCert.o
 .gnu.attributes
                0x00000410       0x10 build/XC32-PIC32_ETH_SK_ETH795/production/_ext/1472/MainDemo.o
 .gnu.attributes
                0x00000420       0x10 c:/program files (x86)/microchip/xc32/v1.10/bin/../lib/gcc/pic32mx/4.5.1/../../../../pic32mx/lib\libmchp_peripheral.a(read_core_timer_lib.o)
 .gnu.attributes
                0x00000430       0x10 c:/program files (x86)/microchip/xc32/v1.10/bin/../lib/gcc/pic32mx/4.5.1/../../../../pic32mx/lib\libmchp_peripheral_32MX795F512L.a(eth_ack_packet_lib.o)
 .gnu.attributes
                0x00000440       0x10 c:/program files (x86)/microchip/xc32/v1.10/bin/../lib/gcc/pic32mx/4.5.1/../../../../pic32mx/lib\libmchp_peripheral_32MX795F512L.a(eth_descriptors_add_lib.o)
 .gnu.attributes
                0x00000450       0x10 c:/program files (x86)/microchip/xc32/v1.10/bin/../lib/gcc/pic32mx/4.5.1/../../../../pic32mx/lib\libmchp_peripheral_32MX795F512L.a(eth_init_lib.o)
 .gnu.attributes
                0x00000460       0x10 c:/program files (x86)/microchip/xc32/v1.10/bin/../lib/gcc/pic32mx/4.5.1/../../../../pic32mx/lib\libmchp_peripheral_32MX795F512L.a(eth_mac_open_lib.o)
 .gnu.attributes
                0x00000470       0x10 c:/program files (x86)/microchip/xc32/v1.10/bin/../lib/gcc/pic32mx/4.5.1/../../../../pic32mx/lib\libmchp_peripheral_32MX795F512L.a(eth_mac_set_address_max_lib.o)
 .gnu.attributes
                0x00000480       0x10 c:/program files (x86)/microchip/xc32/v1.10/bin/../lib/gcc/pic32mx/4.5.1/../../../../pic32mx/lib\libmchp_peripheral_32MX795F512L.a(eth_rx_buffers_append_lib.o)
 .gnu.attributes
                0x00000490       0x10 c:/program files (x86)/microchip/xc32/v1.10/bin/../lib/gcc/pic32mx/4.5.1/../../../../pic32mx/lib\libmchp_peripheral_32MX795F512L.a(eth_rx_filters_lib.o)
 .gnu.attributes
                0x000004a0       0x10 c:/program files (x86)/microchip/xc32/v1.10/bin/../lib/gcc/pic32mx/4.5.1/../../../../pic32mx/lib\libmchp_peripheral_32MX795F512L.a(eth_rx_get_packet_lib.o)
 .gnu.attributes
                0x000004b0       0x10 c:/program files (x86)/microchip/xc32/v1.10/bin/../lib/gcc/pic32mx/4.5.1/../../../../pic32mx/lib\libmchp_peripheral_32MX795F512L.a(eth_rx_set_buffer_size_lib.o)
 .gnu.attributes
                0x000004c0       0x10 c:/program files (x86)/microchip/xc32/v1.10/bin/../lib/gcc/pic32mx/4.5.1/../../../../pic32mx/lib\libmchp_peripheral_32MX795F512L.a(eth_tx_packet_lib.o)
 .gnu.attributes
                0x000004d0       0x10 c:/program files (x86)/microchip/xc32/v1.10/bin/../lib/gcc/pic32mx/4.5.1/../../../../pic32mx/lib\libmchp_peripheral_32MX795F512L.a(_eth_append_busy_list_lib.o)
 .gnu.attributes
                0x000004e0       0x10 c:/program files (x86)/microchip/xc32/v1.10/bin/../lib/gcc/pic32mx/4.5.1/../../../../pic32mx/lib\libmchp_peripheral_32MX795F512L.a(eth_miim_access.o)
 .gnu.attributes
                0x000004f0       0x10 c:/program files (x86)/microchip/xc32/v1.10/bin/../lib/gcc/pic32mx/4.5.1/../../../../pic32mx/lib\libmchp_peripheral_32MX795F512L.a(pcache.o)
 .gnu.attributes
                0x00000500       0x10 c:/program files (x86)/microchip/xc32/v1.10/bin/../lib/gcc/pic32mx/4.5.1/../../../../pic32mx/lib\libmchp_peripheral_32MX795F512L.a(int_disable_interrupts_lib.o)
 .gnu.attributes
                0x00000510       0x10 c:/program files (x86)/microchip/xc32/v1.10/bin/../lib/gcc/pic32mx/4.5.1/../../../../pic32mx/lib\libmchp_peripheral_32MX795F512L.a(int_restore_interrupts_lib.o)
 .gnu.attributes
                0x00000520       0x10 c:/program files (x86)/microchip/xc32/v1.10/bin/../lib/gcc/pic32mx/4.5.1/../../../../pic32mx/lib\libmchp_peripheral_32MX795F512L.a(int_enable_mv_int_lib.o)
 .gnu.attributes
                0x00000530       0x10 c:/program files (x86)/microchip/xc32/v1.10/bin/../lib/gcc/pic32mx/4.5.1/../../../../pic32mx/lib\libmchp_peripheral_32MX795F512L.a(int_tbl_lib.o)
 .gnu.attributes
                0x00000540       0x10 c:/program files (x86)/microchip/xc32/v1.10/bin/../lib/gcc/pic32mx/4.5.1/../../../../pic32mx/lib\libmchp_peripheral_32MX795F512L.a(port_set_pins_digital_in_lib.o)
 .gnu.attributes
                0x00000550       0x10 c:/program files (x86)/microchip/xc32/v1.10/bin/../lib/gcc/pic32mx/4.5.1/../../../../pic32mx/lib\libmchp_peripheral_32MX795F512L.a(port_set_pins_digital_out_lib.o)
 .gnu.attributes
                0x00000560       0x10 c:/program files (x86)/microchip/xc32/v1.10/bin/../lib/gcc/pic32mx/4.5.1/../../../../pic32mx/lib\libmchp_peripheral_32MX795F512L.a(_ports_tbl_libp.o)
 .gnu.attributes
                0x00000570       0x10 c:/program files (x86)/microchip/xc32/v1.10/bin/../lib/gcc/pic32mx/4.5.1/../../../../pic32mx/lib\libmchp_peripheral_32MX795F512L.a(int_enable_interrupts_lib.o)
 .gnu.attributes
                0x00000580       0x10 c:/program files (x86)/microchip/xc32/v1.10/bin/../lib/gcc/pic32mx/4.5.1\libgcc.a(_udivdi3.o)
 .gnu.attributes
                0x00000590       0x10 c:/program files (x86)/microchip/xc32/v1.10/bin/../lib/gcc/pic32mx/4.5.1\libgcc.a(_umoddi3.o)
 .gnu.attributes
                0x000005a0       0x10 c:/program files (x86)/microchip/xc32/v1.10/bin/../lib/gcc/pic32mx/4.5.1/../../../../pic32mx/lib\libpic32.a(default-bootstrap-exception-handler.o)
 .gnu.attributes
                0x000005b0       0x10 c:/program files (x86)/microchip/xc32/v1.10/bin/../lib/gcc/pic32mx/4.5.1/../../../../pic32mx/lib\libpic32.a(default-on-reset.o)
 .gnu.attributes
                0x000005c0       0x10 c:/program files (x86)/microchip/xc32/v1.10/bin/../lib/gcc/pic32mx/4.5.1/../../../../pic32mx/lib\libpic32.a(default-on-bootstrap.o)
 .gnu.attributes
                0x000005d0       0x10 c:/program files (x86)/microchip/xc32/v1.10/bin/../lib/gcc/pic32mx/4.5.1/../../../../pic32mx/lib\libc.a(calloc.o)
 .gnu.attributes
                0x000005e0       0x10 c:/program files (x86)/microchip/xc32/v1.10/bin/../lib/gcc/pic32mx/4.5.1/../../../../pic32mx/lib\libc.a(malloc.o)
 .gnu.attributes
                0x000005f0       0x10 c:/program files (x86)/microchip/xc32/v1.10/bin/../lib/gcc/pic32mx/4.5.1/../../../../pic32mx/lib\libc.a(strncpy.o)
 .gnu.attributes
                0x00000600       0x10 c:/program files (x86)/microchip/xc32/v1.10/bin/../lib/gcc/pic32mx/4.5.1/../../../../pic32mx/lib\libpic32.a(sbrk.o)
 .gnu.attributes
                0x00000610       0x10 c:/program files (x86)/microchip/xc32/v1.10/bin/../lib/gcc/pic32mx/4.5.1/../../../../pic32mx/lib\libpic32.a(errno.o)
LOAD c:/program files (x86)/microchip/xc32/v1.10/bin/../lib/gcc/pic32mx/4.5.1\libgcc.a
START GROUP
LOAD c:/program files (x86)/microchip/xc32/v1.10/bin/../lib/gcc/pic32mx/4.5.1/../../../../pic32mx/lib\libpic32.a
LOAD c:/program files (x86)/microchip/xc32/v1.10/bin/../lib/gcc/pic32mx/4.5.1/../../../../pic32mx/lib\libdebug.a
LOAD c:/program files (x86)/microchip/xc32/v1.10/bin/../lib/gcc/pic32mx/4.5.1/../../../../pic32mx/lib\libm.a
LOAD c:/program files (x86)/microchip/xc32/v1.10/bin/../lib/gcc/pic32mx/4.5.1/../../../../pic32mx/lib\libe.a
LOAD c:/program files (x86)/microchip/xc32/v1.10/bin/../lib/gcc/pic32mx/4.5.1/../../../../pic32mx/lib\libdsp.a
LOAD c:/program files (x86)/microchip/xc32/v1.10/bin/../lib/gcc/pic32mx/4.5.1\libgcc.a
LOAD c:/program files (x86)/microchip/xc32/v1.10/bin/../lib/gcc/pic32mx/4.5.1/../../../../pic32mx/lib\libpic32.a
LOAD c:/program files (x86)/microchip/xc32/v1.10/bin/../lib/gcc/pic32mx/4.5.1/../../../../pic32mx/lib\libmchp_peripheral.a
LOAD c:/program files (x86)/microchip/xc32/v1.10/bin/../lib/gcc/pic32mx/4.5.1/../../../../pic32mx/lib\libmchp_peripheral_32MX795F512L.a
LOAD c:/program files (x86)/microchip/xc32/v1.10/bin/../lib/gcc/pic32mx/4.5.1/../../../../pic32mx/lib\libc.a
LOAD c:/program files (x86)/microchip/xc32/v1.10/bin/../lib/gcc/pic32mx/4.5.1/../../../../pic32mx/lib\libpic32.a
END GROUP
LOAD c:/program files (x86)/microchip/xc32/v1.10/bin/../lib/gcc/pic32mx/4.5.1\libgcc.a
OUTPUT(dist/XC32-PIC32_ETH_SK_ETH795/production/MPLAB.X.production.elf elf32-tradlittlemips)
LOAD stack
LOAD data_init

.reginfo        0x9d000000       0x18
 .reginfo       0x9d000000       0x18 c:/program files (x86)/microchip/xc32/v1.10/bin/../lib/gcc/pic32mx/4.5.1/../../../../pic32mx/lib/crt0.o

.stack          0xa000c1d0      0x800
 .stack         0xa000c1d0      0x800 stack

.bss            0xa000033c     0x7e90
 .bss           0xa000033c     0x4224 build/XC32-PIC32_ETH_SK_ETH795/production/_ext/1954962658/TCP.o
 .bss           0xa0004560     0x3be0 build/XC32-PIC32_ETH_SK_ETH795/production/_ext/1954962658/ETHPIC32IntMac.o
 .bss           0xa0008140       0x8c build/XC32-PIC32_ETH_SK_ETH795/production/_ext/1954962658/BerkeleyAPI.o

.data           0xa00081cc       0x70
 .data          0xa00081cc       0x70 build/XC32-PIC32_ETH_SK_ETH795/production/_ext/1472/BerkeleyTCPClientDemo.o

.bss            0xa000823c       0xbc
 .bss           0xa000823c       0x34 build/XC32-PIC32_ETH_SK_ETH795/production/_ext/1954962658/AutoIP.o
 .bss           0xa0008270       0x34 build/XC32-PIC32_ETH_SK_ETH795/production/_ext/1954962658/DHCP.o
 .bss           0xa00082a4       0x1c c:/program files (x86)/microchip/xc32/v1.10/bin/../lib/gcc/pic32mx/4.5.1/../../../../pic32mx/lib\libpic32.a(sbrk.o)
 .bss           0xa00082c0       0x18 build/XC32-PIC32_ETH_SK_ETH795/production/_ext/1954962658/ARP.o
 .bss           0xa00082d8       0x10 build/XC32-PIC32_ETH_SK_ETH795/production/_ext/1472/BerkeleyTCPClientDemo.o
 .bss           0xa00082e8       0x10 build/XC32-PIC32_ETH_SK_ETH795/production/_ext/1472/BerkeleyUDPClientDemo.o

.data           0xa00082f8       0x10
 .data          0xa00082f8       0x10 build/XC32-PIC32_ETH_SK_ETH795/production/_ext/1472/GenericTCPClient.o

.bss            0xa0008308       0x28
 .bss           0xa0008308       0x10 c:/program files (x86)/microchip/xc32/v1.10/bin/../lib/gcc/pic32mx/4.5.1/../../../../pic32mx/lib\libc.a(malloc.o)
                0xa0008308                __allocs
 .bss           0xa0008318        0xc build/XC32-PIC32_ETH_SK_ETH795/production/_ext/1954962658/DNS.o
 .bss           0xa0008324        0xc build/XC32-PIC32_ETH_SK_ETH795/production/_ext/1954962658/ICMP.o

.bss%z1         0x00000000        0x0
 .bss           0x00000000        0x0 c:/program files (x86)/microchip/xc32/v1.10/bin/../lib/gcc/pic32mx/4.5.1/../../../../pic32mx/lib\libpic32.a(errno.o)

.data%z2        0x00000000        0x0
 .data          0x00000000        0x0 c:/program files (x86)/microchip/xc32/v1.10/bin/../lib/gcc/pic32mx/4.5.1/../../../../pic32mx/lib\libpic32.a(errno.o)

.data%z3        0x00000000        0x0
 .data          0x00000000        0x0 c:/program files (x86)/microchip/xc32/v1.10/bin/../lib/gcc/pic32mx/4.5.1/../../../../pic32mx/lib\libpic32.a(sbrk.o)

.bss%z4         0x00000000        0x0
 .bss           0x00000000        0x0 c:/program files (x86)/microchip/xc32/v1.10/bin/../lib/gcc/pic32mx/4.5.1/../../../../pic32mx/lib\libc.a(strncpy.o)

.data%z5        0x00000000        0x0
 .data          0x00000000        0x0 c:/program files (x86)/microchip/xc32/v1.10/bin/../lib/gcc/pic32mx/4.5.1/../../../../pic32mx/lib\libc.a(strncpy.o)

.data%z6        0x00000000        0x0
 .data          0x00000000        0x0 c:/program files (x86)/microchip/xc32/v1.10/bin/../lib/gcc/pic32mx/4.5.1/../../../../pic32mx/lib\libc.a(malloc.o)

.bss%z7         0x00000000        0x0
 .bss           0x00000000        0x0 c:/program files (x86)/microchip/xc32/v1.10/bin/../lib/gcc/pic32mx/4.5.1/../../../../pic32mx/lib\libc.a(calloc.o)

.data%z8        0x00000000        0x0
 .data          0x00000000        0x0 c:/program files (x86)/microchip/xc32/v1.10/bin/../lib/gcc/pic32mx/4.5.1/../../../../pic32mx/lib\libc.a(calloc.o)

.bss%z9         0x00000000        0x0
 .bss           0x00000000        0x0 c:/program files (x86)/microchip/xc32/v1.10/bin/../lib/gcc/pic32mx/4.5.1/../../../../pic32mx/lib\libpic32.a(general-exception.o)

.data%z10       0x00000000        0x0
 .data          0x00000000        0x0 c:/program files (x86)/microchip/xc32/v1.10/bin/../lib/gcc/pic32mx/4.5.1/../../../../pic32mx/lib\libpic32.a(general-exception.o)

.bss%z11        0x00000000        0x0
 .bss           0x00000000        0x0 c:/program files (x86)/microchip/xc32/v1.10/bin/../lib/gcc/pic32mx/4.5.1/../../../../pic32mx/lib\libpic32.a(default-nmi-handler.o)

.data%z12       0x00000000        0x0
 .data          0x00000000        0x0 c:/program files (x86)/microchip/xc32/v1.10/bin/../lib/gcc/pic32mx/4.5.1/../../../../pic32mx/lib\libpic32.a(default-nmi-handler.o)

.bss%z13        0x00000000        0x0
 .bss           0x00000000        0x0 c:/program files (x86)/microchip/xc32/v1.10/bin/../lib/gcc/pic32mx/4.5.1/../../../../pic32mx/lib\libpic32.a(default-on-bootstrap.o)

.data%z14       0x00000000        0x0
 .data          0x00000000        0x0 c:/program files (x86)/microchip/xc32/v1.10/bin/../lib/gcc/pic32mx/4.5.1/../../../../pic32mx/lib\libpic32.a(default-on-bootstrap.o)

.bss%z15        0x00000000        0x0
 .bss           0x00000000        0x0 c:/program files (x86)/microchip/xc32/v1.10/bin/../lib/gcc/pic32mx/4.5.1/../../../../pic32mx/lib\libpic32.a(default-on-reset.o)

.data%z16       0x00000000        0x0
 .data          0x00000000        0x0 c:/program files (x86)/microchip/xc32/v1.10/bin/../lib/gcc/pic32mx/4.5.1/../../../../pic32mx/lib\libpic32.a(default-on-reset.o)

.bss%z17        0x00000000        0x0
 .bss           0x00000000        0x0 c:/program files (x86)/microchip/xc32/v1.10/bin/../lib/gcc/pic32mx/4.5.1/../../../../pic32mx/lib\libpic32.a(default-bootstrap-exception-handler.o)

.data%z18       0x00000000        0x0
 .data          0x00000000        0x0 c:/program files (x86)/microchip/xc32/v1.10/bin/../lib/gcc/pic32mx/4.5.1/../../../../pic32mx/lib\libpic32.a(default-bootstrap-exception-handler.o)

.bss%z19        0x00000000        0x0
 .bss           0x00000000        0x0 c:/program files (x86)/microchip/xc32/v1.10/bin/../lib/gcc/pic32mx/4.5.1/../../../../pic32mx/lib\libpic32.a(strlen.o)

.data%z20       0x00000000        0x0
 .data          0x00000000        0x0 c:/program files (x86)/microchip/xc32/v1.10/bin/../lib/gcc/pic32mx/4.5.1/../../../../pic32mx/lib\libpic32.a(strlen.o)

.bss%z21        0x00000000        0x0
 .bss           0x00000000        0x0 c:/program files (x86)/microchip/xc32/v1.10/bin/../lib/gcc/pic32mx/4.5.1/../../../../pic32mx/lib\libpic32.a(memset.o)

.data%z22       0x00000000        0x0
 .data          0x00000000        0x0 c:/program files (x86)/microchip/xc32/v1.10/bin/../lib/gcc/pic32mx/4.5.1/../../../../pic32mx/lib\libpic32.a(memset.o)

.bss%z23        0x00000000        0x0
 .bss           0x00000000        0x0 c:/program files (x86)/microchip/xc32/v1.10/bin/../lib/gcc/pic32mx/4.5.1/../../../../pic32mx/lib\libpic32.a(memcpy.o)

.data%z24       0x00000000        0x0
 .data          0x00000000        0x0 c:/program files (x86)/microchip/xc32/v1.10/bin/../lib/gcc/pic32mx/4.5.1/../../../../pic32mx/lib\libpic32.a(memcpy.o)

.bss%z25        0x00000000        0x0
 .bss           0x00000000        0x0 c:/program files (x86)/microchip/xc32/v1.10/bin/../lib/gcc/pic32mx/4.5.1/../../../../pic32mx/lib\libpic32.a(memcmp.o)

.data%z26       0x00000000        0x0
 .data          0x00000000        0x0 c:/program files (x86)/microchip/xc32/v1.10/bin/../lib/gcc/pic32mx/4.5.1/../../../../pic32mx/lib\libpic32.a(memcmp.o)

.bss%z27        0x00000000        0x0
 .bss           0x00000000        0x0 c:/program files (x86)/microchip/xc32/v1.10/bin/../lib/gcc/pic32mx/4.5.1\libgcc.a(_umoddi3.o)

.data%z28       0x00000000        0x0
 .data          0x00000000        0x0 c:/program files (x86)/microchip/xc32/v1.10/bin/../lib/gcc/pic32mx/4.5.1\libgcc.a(_umoddi3.o)

.bss%z29        0x00000000        0x0
 .bss           0x00000000        0x0 c:/program files (x86)/microchip/xc32/v1.10/bin/../lib/gcc/pic32mx/4.5.1\libgcc.a(_udivdi3.o)

.data%z30       0x00000000        0x0
 .data          0x00000000        0x0 c:/program files (x86)/microchip/xc32/v1.10/bin/../lib/gcc/pic32mx/4.5.1\libgcc.a(_udivdi3.o)

.bss%z31        0x00000000        0x0
 .bss           0x00000000        0x0 c:/program files (x86)/microchip/xc32/v1.10/bin/../lib/gcc/pic32mx/4.5.1/../../../../pic32mx/lib\libmchp_peripheral_32MX795F512L.a(int_enable_interrupts_lib.o)

.data%z32       0x00000000        0x0
 .data          0x00000000        0x0 c:/program files (x86)/microchip/xc32/v1.10/bin/../lib/gcc/pic32mx/4.5.1/../../../../pic32mx/lib\libmchp_peripheral_32MX795F512L.a(int_enable_interrupts_lib.o)

.bss%z33        0x00000000        0x0
 .bss           0x00000000        0x0 c:/program files (x86)/microchip/xc32/v1.10/bin/../lib/gcc/pic32mx/4.5.1/../../../../pic32mx/lib\libmchp_peripheral_32MX795F512L.a(_ports_tbl_libp.o)

.data%z34       0x00000000        0x0
 .data          0x00000000        0x0 c:/program files (x86)/microchip/xc32/v1.10/bin/../lib/gcc/pic32mx/4.5.1/../../../../pic32mx/lib\libmchp_peripheral_32MX795F512L.a(_ports_tbl_libp.o)

.bss%z35        0x00000000        0x0
 .bss           0x00000000        0x0 c:/program files (x86)/microchip/xc32/v1.10/bin/../lib/gcc/pic32mx/4.5.1/../../../../pic32mx/lib\libmchp_peripheral_32MX795F512L.a(port_set_pins_digital_out_lib.o)

.data%z36       0x00000000        0x0
 .data          0x00000000        0x0 c:/program files (x86)/microchip/xc32/v1.10/bin/../lib/gcc/pic32mx/4.5.1/../../../../pic32mx/lib\libmchp_peripheral_32MX795F512L.a(port_set_pins_digital_out_lib.o)

.bss%z37        0x00000000        0x0
 .bss           0x00000000        0x0 c:/program files (x86)/microchip/xc32/v1.10/bin/../lib/gcc/pic32mx/4.5.1/../../../../pic32mx/lib\libmchp_peripheral_32MX795F512L.a(port_set_pins_digital_in_lib.o)

.data%z38       0x00000000        0x0
 .data          0x00000000        0x0 c:/program files (x86)/microchip/xc32/v1.10/bin/../lib/gcc/pic32mx/4.5.1/../../../../pic32mx/lib\libmchp_peripheral_32MX795F512L.a(port_set_pins_digital_in_lib.o)

.bss%z39        0x00000000        0x0
 .bss           0x00000000        0x0 c:/program files (x86)/microchip/xc32/v1.10/bin/../lib/gcc/pic32mx/4.5.1/../../../../pic32mx/lib\libmchp_peripheral_32MX795F512L.a(int_tbl_lib.o)

.data%z40       0x00000000        0x0
 .data          0x00000000        0x0 c:/program files (x86)/microchip/xc32/v1.10/bin/../lib/gcc/pic32mx/4.5.1/../../../../pic32mx/lib\libmchp_peripheral_32MX795F512L.a(int_tbl_lib.o)

.bss%z41        0x00000000        0x0
 .bss           0x00000000        0x0 c:/program files (x86)/microchip/xc32/v1.10/bin/../lib/gcc/pic32mx/4.5.1/../../../../pic32mx/lib\libmchp_peripheral_32MX795F512L.a(int_enable_mv_int_lib.o)

.data%z42       0x00000000        0x0
 .data          0x00000000        0x0 c:/program files (x86)/microchip/xc32/v1.10/bin/../lib/gcc/pic32mx/4.5.1/../../../../pic32mx/lib\libmchp_peripheral_32MX795F512L.a(int_enable_mv_int_lib.o)

.bss%z43        0x00000000        0x0
 .bss           0x00000000        0x0 c:/program files (x86)/microchip/xc32/v1.10/bin/../lib/gcc/pic32mx/4.5.1/../../../../pic32mx/lib\libmchp_peripheral_32MX795F512L.a(int_restore_interrupts_lib.o)

.data%z44       0x00000000        0x0
 .data          0x00000000        0x0 c:/program files (x86)/microchip/xc32/v1.10/bin/../lib/gcc/pic32mx/4.5.1/../../../../pic32mx/lib\libmchp_peripheral_32MX795F512L.a(int_restore_interrupts_lib.o)

.bss%z45        0x00000000        0x0
 .bss           0x00000000        0x0 c:/program files (x86)/microchip/xc32/v1.10/bin/../lib/gcc/pic32mx/4.5.1/../../../../pic32mx/lib\libmchp_peripheral_32MX795F512L.a(int_disable_interrupts_lib.o)

.data%z46       0x00000000        0x0
 .data          0x00000000        0x0 c:/program files (x86)/microchip/xc32/v1.10/bin/../lib/gcc/pic32mx/4.5.1/../../../../pic32mx/lib\libmchp_peripheral_32MX795F512L.a(int_disable_interrupts_lib.o)

.bss%z47        0x00000000        0x0
 .bss           0x00000000        0x0 c:/program files (x86)/microchip/xc32/v1.10/bin/../lib/gcc/pic32mx/4.5.1/../../../../pic32mx/lib\libmchp_peripheral_32MX795F512L.a(pcache.o)

.data%z48       0x00000000        0x0
 .data          0x00000000        0x0 c:/program files (x86)/microchip/xc32/v1.10/bin/../lib/gcc/pic32mx/4.5.1/../../../../pic32mx/lib\libmchp_peripheral_32MX795F512L.a(pcache.o)

.bss%z49        0x00000000        0x0
 .bss           0x00000000        0x0 c:/program files (x86)/microchip/xc32/v1.10/bin/../lib/gcc/pic32mx/4.5.1/../../../../pic32mx/lib\libmchp_peripheral_32MX795F512L.a(eth_miim_access.o)

.data%z50       0x00000000        0x0
 .data          0x00000000        0x0 c:/program files (x86)/microchip/xc32/v1.10/bin/../lib/gcc/pic32mx/4.5.1/../../../../pic32mx/lib\libmchp_peripheral_32MX795F512L.a(eth_miim_access.o)

.bss%z51        0x00000000        0x0
 .bss           0x00000000        0x0 c:/program files (x86)/microchip/xc32/v1.10/bin/../lib/gcc/pic32mx/4.5.1/../../../../pic32mx/lib\libmchp_peripheral_32MX795F512L.a(_eth_append_busy_list_lib.o)

.data%z52       0x00000000        0x0
 .data          0x00000000        0x0 c:/program files (x86)/microchip/xc32/v1.10/bin/../lib/gcc/pic32mx/4.5.1/../../../../pic32mx/lib\libmchp_peripheral_32MX795F512L.a(_eth_append_busy_list_lib.o)

.bss%z53        0x00000000        0x0
 .bss           0x00000000        0x0 c:/program files (x86)/microchip/xc32/v1.10/bin/../lib/gcc/pic32mx/4.5.1/../../../../pic32mx/lib\libmchp_peripheral_32MX795F512L.a(eth_tx_packet_lib.o)

.data%z54       0x00000000        0x0
 .data          0x00000000        0x0 c:/program files (x86)/microchip/xc32/v1.10/bin/../lib/gcc/pic32mx/4.5.1/../../../../pic32mx/lib\libmchp_peripheral_32MX795F512L.a(eth_tx_packet_lib.o)

.bss%z55        0x00000000        0x0
 .bss           0x00000000        0x0 c:/program files (x86)/microchip/xc32/v1.10/bin/../lib/gcc/pic32mx/4.5.1/../../../../pic32mx/lib\libmchp_peripheral_32MX795F512L.a(eth_rx_set_buffer_size_lib.o)

.data%z56       0x00000000        0x0
 .data          0x00000000        0x0 c:/program files (x86)/microchip/xc32/v1.10/bin/../lib/gcc/pic32mx/4.5.1/../../../../pic32mx/lib\libmchp_peripheral_32MX795F512L.a(eth_rx_set_buffer_size_lib.o)

.bss%z57        0x00000000        0x0
 .bss           0x00000000        0x0 c:/program files (x86)/microchip/xc32/v1.10/bin/../lib/gcc/pic32mx/4.5.1/../../../../pic32mx/lib\libmchp_peripheral_32MX795F512L.a(eth_rx_get_packet_lib.o)

.data%z58       0x00000000        0x0
 .data          0x00000000        0x0 c:/program files (x86)/microchip/xc32/v1.10/bin/../lib/gcc/pic32mx/4.5.1/../../../../pic32mx/lib\libmchp_peripheral_32MX795F512L.a(eth_rx_get_packet_lib.o)

.bss%z59        0x00000000        0x0
 .bss           0x00000000        0x0 c:/program files (x86)/microchip/xc32/v1.10/bin/../lib/gcc/pic32mx/4.5.1/../../../../pic32mx/lib\libmchp_peripheral_32MX795F512L.a(eth_rx_filters_lib.o)

.data%z60       0x00000000        0x0
 .data          0x00000000        0x0 c:/program files (x86)/microchip/xc32/v1.10/bin/../lib/gcc/pic32mx/4.5.1/../../../../pic32mx/lib\libmchp_peripheral_32MX795F512L.a(eth_rx_filters_lib.o)

.bss%z61        0x00000000        0x0
 .bss           0x00000000        0x0 c:/program files (x86)/microchip/xc32/v1.10/bin/../lib/gcc/pic32mx/4.5.1/../../../../pic32mx/lib\libmchp_peripheral_32MX795F512L.a(eth_rx_buffers_append_lib.o)

.data%z62       0x00000000        0x0
 .data          0x00000000        0x0 c:/program files (x86)/microchip/xc32/v1.10/bin/../lib/gcc/pic32mx/4.5.1/../../../../pic32mx/lib\libmchp_peripheral_32MX795F512L.a(eth_rx_buffers_append_lib.o)

.bss%z63        0x00000000        0x0
 .bss           0x00000000        0x0 c:/program files (x86)/microchip/xc32/v1.10/bin/../lib/gcc/pic32mx/4.5.1/../../../../pic32mx/lib\libmchp_peripheral_32MX795F512L.a(eth_mac_set_address_max_lib.o)

.data%z64       0x00000000        0x0
 .data          0x00000000        0x0 c:/program files (x86)/microchip/xc32/v1.10/bin/../lib/gcc/pic32mx/4.5.1/../../../../pic32mx/lib\libmchp_peripheral_32MX795F512L.a(eth_mac_set_address_max_lib.o)

.bss%z65        0x00000000        0x0
 .bss           0x00000000        0x0 c:/program files (x86)/microchip/xc32/v1.10/bin/../lib/gcc/pic32mx/4.5.1/../../../../pic32mx/lib\libmchp_peripheral_32MX795F512L.a(eth_mac_open_lib.o)

.data%z66       0x00000000        0x0
 .data          0x00000000        0x0 c:/program files (x86)/microchip/xc32/v1.10/bin/../lib/gcc/pic32mx/4.5.1/../../../../pic32mx/lib\libmchp_peripheral_32MX795F512L.a(eth_mac_open_lib.o)

.bss%z67        0x00000000        0x0
 .bss           0x00000000        0x0 c:/program files (x86)/microchip/xc32/v1.10/bin/../lib/gcc/pic32mx/4.5.1/../../../../pic32mx/lib\libmchp_peripheral_32MX795F512L.a(eth_init_lib.o)

.data%z68       0x00000000        0x0
 .data          0x00000000        0x0 c:/program files (x86)/microchip/xc32/v1.10/bin/../lib/gcc/pic32mx/4.5.1/../../../../pic32mx/lib\libmchp_peripheral_32MX795F512L.a(eth_init_lib.o)

.bss%z69        0x00000000        0x0
 .bss           0x00000000        0x0 c:/program files (x86)/microchip/xc32/v1.10/bin/../lib/gcc/pic32mx/4.5.1/../../../../pic32mx/lib\libmchp_peripheral_32MX795F512L.a(eth_descriptors_add_lib.o)

.data%z70       0x00000000        0x0
 .data          0x00000000        0x0 c:/program files (x86)/microchip/xc32/v1.10/bin/../lib/gcc/pic32mx/4.5.1/../../../../pic32mx/lib\libmchp_peripheral_32MX795F512L.a(eth_descriptors_add_lib.o)

.bss%z71        0x00000000        0x0
 .bss           0x00000000        0x0 c:/program files (x86)/microchip/xc32/v1.10/bin/../lib/gcc/pic32mx/4.5.1/../../../../pic32mx/lib\libmchp_peripheral_32MX795F512L.a(eth_ack_packet_lib.o)

.data%z72       0x00000000        0x0
 .data          0x00000000        0x0 c:/program files (x86)/microchip/xc32/v1.10/bin/../lib/gcc/pic32mx/4.5.1/../../../../pic32mx/lib\libmchp_peripheral_32MX795F512L.a(eth_ack_packet_lib.o)

.bss%z73        0x00000000        0x0
 .bss           0x00000000        0x0 c:/program files (x86)/microchip/xc32/v1.10/bin/../lib/gcc/pic32mx/4.5.1/../../../../pic32mx/lib\libmchp_peripheral.a(read_core_timer_lib.o)

.data%z74       0x00000000        0x0
 .data          0x00000000        0x0 c:/program files (x86)/microchip/xc32/v1.10/bin/../lib/gcc/pic32mx/4.5.1/../../../../pic32mx/lib\libmchp_peripheral.a(read_core_timer_lib.o)

.bss%z75        0x00000000        0x0
 .bss           0x00000000        0x0 c:/program files (x86)/microchip/xc32/v1.10/bin/../lib/gcc/pic32mx/4.5.1/../../../../pic32mx/lib/./proc/32MX795F512L\processor.o

.data%z76       0x00000000        0x0
 .data          0x00000000        0x0 c:/program files (x86)/microchip/xc32/v1.10/bin/../lib/gcc/pic32mx/4.5.1/../../../../pic32mx/lib/./proc/32MX795F512L\processor.o

.bss%z77        0x00000000        0x0
 .bss           0x00000000        0x0 build/XC32-PIC32_ETH_SK_ETH795/production/_ext/1472/MainDemo.o

.data%z78       0x00000000        0x0
 .data          0x00000000        0x0 build/XC32-PIC32_ETH_SK_ETH795/production/_ext/1472/MainDemo.o

.bss%z79        0x00000000        0x0
 .bss           0x00000000        0x0 build/XC32-PIC32_ETH_SK_ETH795/production/_ext/1472/CustomSSLCert.o

.data%z80       0x00000000        0x0
 .data          0x00000000        0x0 build/XC32-PIC32_ETH_SK_ETH795/production/_ext/1472/CustomSSLCert.o

.bss%z81        0x00000000        0x0
 .bss           0x00000000        0x0 build/XC32-PIC32_ETH_SK_ETH795/production/_ext/1472/CustomSNMPApp.o

.data%z82       0x00000000        0x0
 .data          0x00000000        0x0 build/XC32-PIC32_ETH_SK_ETH795/production/_ext/1472/CustomSNMPApp.o

.bss%z83        0x00000000        0x0
 .bss           0x00000000        0x0 build/XC32-PIC32_ETH_SK_ETH795/production/_ext/1472/CustomHTTPApp.o

.data%z84       0x00000000        0x0
 .data          0x00000000        0x0 build/XC32-PIC32_ETH_SK_ETH795/production/_ext/1472/CustomHTTPApp.o

.bss%z85        0x00000000        0x0
 .bss           0x00000000        0x0 build/XC32-PIC32_ETH_SK_ETH795/production/_ext/243675038/WFDebugStrings.o

.data%z86       0x00000000        0x0
 .data          0x00000000        0x0 build/XC32-PIC32_ETH_SK_ETH795/production/_ext/243675038/WFDebugStrings.o

.bss%z87        0x00000000        0x0
 .bss           0x00000000        0x0 build/XC32-PIC32_ETH_SK_ETH795/production/_ext/1954962658/ZeroconfMulticastDNS.o

.data%z88       0x00000000        0x0
 .data          0x00000000        0x0 build/XC32-PIC32_ETH_SK_ETH795/production/_ext/1954962658/ZeroconfMulticastDNS.o

.bss%z89        0x00000000        0x0
 .bss           0x00000000        0x0 build/XC32-PIC32_ETH_SK_ETH795/production/_ext/1954962658/ZeroconfLinkLocal.o

.data%z90       0x00000000        0x0
 .data          0x00000000        0x0 build/XC32-PIC32_ETH_SK_ETH795/production/_ext/1954962658/ZeroconfLinkLocal.o

.bss%z91        0x00000000        0x0
 .bss           0x00000000        0x0 build/XC32-PIC32_ETH_SK_ETH795/production/_ext/1954962658/ZeroconfHelper.o

.data%z92       0x00000000        0x0
 .data          0x00000000        0x0 build/XC32-PIC32_ETH_SK_ETH795/production/_ext/1954962658/ZeroconfHelper.o

.bss%z93        0x00000000        0x0
 .bss           0x00000000        0x0 build/XC32-PIC32_ETH_SK_ETH795/production/_ext/1954962658/UDPPerformanceTest.o

.data%z94       0x00000000        0x0
 .data          0x00000000        0x0 build/XC32-PIC32_ETH_SK_ETH795/production/_ext/1954962658/UDPPerformanceTest.o

.bss%z95        0x00000000        0x0
 .bss           0x00000000        0x0 build/XC32-PIC32_ETH_SK_ETH795/production/_ext/1954962658/UDP.o

.data%z96       0x00000000        0x0
 .data          0x00000000        0x0 build/XC32-PIC32_ETH_SK_ETH795/production/_ext/1954962658/UDP.o

.bss%z97        0x00000000        0x0
 .bss           0x00000000        0x0 build/XC32-PIC32_ETH_SK_ETH795/production/_ext/1954962658/UART2TCPBridge.o

.data%z98       0x00000000        0x0
 .data          0x00000000        0x0 build/XC32-PIC32_ETH_SK_ETH795/production/_ext/1954962658/UART2TCPBridge.o

.bss%z99        0x00000000        0x0
 .bss           0x00000000        0x0 build/XC32-PIC32_ETH_SK_ETH795/production/_ext/1954962658/UART.o

.data%z100      0x00000000        0x0
 .data          0x00000000        0x0 build/XC32-PIC32_ETH_SK_ETH795/production/_ext/1954962658/UART.o

.bss%z101       0x00000000        0x0
 .bss           0x00000000        0x0 build/XC32-PIC32_ETH_SK_ETH795/production/_ext/1954962658/Tick.o

.data%z102      0x00000000        0x0
 .data          0x00000000        0x0 build/XC32-PIC32_ETH_SK_ETH795/production/_ext/1954962658/Tick.o

.bss%z103       0x00000000        0x0
 .bss           0x00000000        0x0 build/XC32-PIC32_ETH_SK_ETH795/production/_ext/1954962658/Telnet.o

.data%z104      0x00000000        0x0
 .data          0x00000000        0x0 build/XC32-PIC32_ETH_SK_ETH795/production/_ext/1954962658/Telnet.o

.bss%z105       0x00000000        0x0
 .bss           0x00000000        0x0 build/XC32-PIC32_ETH_SK_ETH795/production/_ext/1954962658/TFTPc.o

.data%z106      0x00000000        0x0
 .data          0x00000000        0x0 build/XC32-PIC32_ETH_SK_ETH795/production/_ext/1954962658/TFTPc.o

.bss%z107       0x00000000        0x0
 .bss           0x00000000        0x0 build/XC32-PIC32_ETH_SK_ETH795/production/_ext/1954962658/TCPPerformanceTest.o

.data%z108      0x00000000        0x0
 .data          0x00000000        0x0 build/XC32-PIC32_ETH_SK_ETH795/production/_ext/1954962658/TCPPerformanceTest.o

.data%z109      0x00000000        0x0
 .data          0x00000000        0x0 build/XC32-PIC32_ETH_SK_ETH795/production/_ext/1954962658/TCP.o

.bss%z110       0x00000000        0x0
 .bss           0x00000000        0x0 build/XC32-PIC32_ETH_SK_ETH795/production/_ext/1954962658/StackTsk.o

.data%z111      0x00000000        0x0
 .data          0x00000000        0x0 build/XC32-PIC32_ETH_SK_ETH795/production/_ext/1954962658/StackTsk.o

.bss%z112       0x00000000        0x0
 .bss           0x00000000        0x0 build/XC32-PIC32_ETH_SK_ETH795/production/_ext/1954962658/SSL.o

.data%z113      0x00000000        0x0
 .data          0x00000000        0x0 build/XC32-PIC32_ETH_SK_ETH795/production/_ext/1954962658/SSL.o

.bss%z114       0x00000000        0x0
 .bss           0x00000000        0x0 build/XC32-PIC32_ETH_SK_ETH795/production/_ext/1954962658/SPIRAM.o

.data%z115      0x00000000        0x0
 .data          0x00000000        0x0 build/XC32-PIC32_ETH_SK_ETH795/production/_ext/1954962658/SPIRAM.o

.bss%z116       0x00000000        0x0
 .bss           0x00000000        0x0 build/XC32-PIC32_ETH_SK_ETH795/production/_ext/1954962658/SPIFlash.o

.data%z117      0x00000000        0x0
 .data          0x00000000        0x0 build/XC32-PIC32_ETH_SK_ETH795/production/_ext/1954962658/SPIFlash.o

.bss%z118       0x00000000        0x0
 .bss           0x00000000        0x0 build/XC32-PIC32_ETH_SK_ETH795/production/_ext/1954962658/SPIEEPROM.o

.data%z119      0x00000000        0x0
 .data          0x00000000        0x0 build/XC32-PIC32_ETH_SK_ETH795/production/_ext/1954962658/SPIEEPROM.o

.bss%z120       0x00000000        0x0
 .bss           0x00000000        0x0 build/XC32-PIC32_ETH_SK_ETH795/production/_ext/1954962658/SNTP.o

.data%z121      0x00000000        0x0
 .data          0x00000000        0x0 build/XC32-PIC32_ETH_SK_ETH795/production/_ext/1954962658/SNTP.o

.bss%z122       0x00000000        0x0
 .bss           0x00000000        0x0 build/XC32-PIC32_ETH_SK_ETH795/production/_ext/1954962658/SNMPv3USM.o

.data%z123      0x00000000        0x0
 .data          0x00000000        0x0 build/XC32-PIC32_ETH_SK_ETH795/production/_ext/1954962658/SNMPv3USM.o

.bss%z124       0x00000000        0x0
 .bss           0x00000000        0x0 build/XC32-PIC32_ETH_SK_ETH795/production/_ext/1954962658/SNMPv3.o

.data%z125      0x00000000        0x0
 .data          0x00000000        0x0 build/XC32-PIC32_ETH_SK_ETH795/production/_ext/1954962658/SNMPv3.o

.bss%z126       0x00000000        0x0
 .bss           0x00000000        0x0 build/XC32-PIC32_ETH_SK_ETH795/production/_ext/1954962658/SNMP.o

.data%z127      0x00000000        0x0
 .data          0x00000000        0x0 build/XC32-PIC32_ETH_SK_ETH795/production/_ext/1954962658/SNMP.o

.bss%z128       0x00000000        0x0
 .bss           0x00000000        0x0 build/XC32-PIC32_ETH_SK_ETH795/production/_ext/1954962658/SMTP.o

.data%z129      0x00000000        0x0
 .data          0x00000000        0x0 build/XC32-PIC32_ETH_SK_ETH795/production/_ext/1954962658/SMTP.o

.bss%z130       0x00000000        0x0
 .bss           0x00000000        0x0 build/XC32-PIC32_ETH_SK_ETH795/production/_ext/1954962658/Reboot.o

.data%z131      0x00000000        0x0
 .data          0x00000000        0x0 build/XC32-PIC32_ETH_SK_ETH795/production/_ext/1954962658/Reboot.o

.bss%z132       0x00000000        0x0
 .bss           0x00000000        0x0 build/XC32-PIC32_ETH_SK_ETH795/production/_ext/1954962658/Random.o

.data%z133      0x00000000        0x0
 .data          0x00000000        0x0 build/XC32-PIC32_ETH_SK_ETH795/production/_ext/1954962658/Random.o

.bss%z134       0x00000000        0x0
 .bss           0x00000000        0x0 build/XC32-PIC32_ETH_SK_ETH795/production/_ext/1954962658/RSA.o

.data%z135      0x00000000        0x0
 .data          0x00000000        0x0 build/XC32-PIC32_ETH_SK_ETH795/production/_ext/1954962658/RSA.o

.bss%z136       0x00000000        0x0
 .bss           0x00000000        0x0 build/XC32-PIC32_ETH_SK_ETH795/production/_ext/1954962658/NBNS.o

.data%z137      0x00000000        0x0
 .data          0x00000000        0x0 build/XC32-PIC32_ETH_SK_ETH795/production/_ext/1954962658/NBNS.o

.bss%z138       0x00000000        0x0
 .bss           0x00000000        0x0 build/XC32-PIC32_ETH_SK_ETH795/production/_ext/1472/MPFSImg2.o

.data%z139      0x00000000        0x0
 .data          0x00000000        0x0 build/XC32-PIC32_ETH_SK_ETH795/production/_ext/1472/MPFSImg2.o

.bss%z140       0x00000000        0x0
 .bss           0x00000000        0x0 build/XC32-PIC32_ETH_SK_ETH795/production/_ext/1954962658/MPFS2.o

.data%z141      0x00000000        0x0
 .data          0x00000000        0x0 build/XC32-PIC32_ETH_SK_ETH795/production/_ext/1954962658/MPFS2.o

.bss%z142       0x00000000        0x0
 .bss           0x00000000        0x0 build/XC32-PIC32_ETH_SK_ETH795/production/_ext/1954962658/LCDBlocking.o

.data%z143      0x00000000        0x0
 .data          0x00000000        0x0 build/XC32-PIC32_ETH_SK_ETH795/production/_ext/1954962658/LCDBlocking.o

.bss%z144       0x00000000        0x0
 .bss           0x00000000        0x0 build/XC32-PIC32_ETH_SK_ETH795/production/_ext/1954962658/IP.o

.data%z145      0x00000000        0x0
 .data          0x00000000        0x0 build/XC32-PIC32_ETH_SK_ETH795/production/_ext/1954962658/IP.o

.data%z146      0x00000000        0x0
 .data          0x00000000        0x0 build/XC32-PIC32_ETH_SK_ETH795/production/_ext/1954962658/ICMP.o

.bss%z147       0x00000000        0x0
 .bss           0x00000000        0x0 build/XC32-PIC32_ETH_SK_ETH795/production/_ext/1954962658/Helpers.o

.data%z148      0x00000000        0x0
 .data          0x00000000        0x0 build/XC32-PIC32_ETH_SK_ETH795/production/_ext/1954962658/Helpers.o

.bss%z149       0x00000000        0x0
 .bss           0x00000000        0x0 build/XC32-PIC32_ETH_SK_ETH795/production/_ext/1954962658/Hashes.o

.data%z150      0x00000000        0x0
 .data          0x00000000        0x0 build/XC32-PIC32_ETH_SK_ETH795/production/_ext/1954962658/Hashes.o

.bss%z151       0x00000000        0x0
 .bss           0x00000000        0x0 build/XC32-PIC32_ETH_SK_ETH795/production/_ext/1954962658/HTTP2.o

.data%z152      0x00000000        0x0
 .data          0x00000000        0x0 build/XC32-PIC32_ETH_SK_ETH795/production/_ext/1954962658/HTTP2.o

.bss%z153       0x00000000        0x0
 .bss           0x00000000        0x0 build/XC32-PIC32_ETH_SK_ETH795/production/_ext/1954962658/FileSystem.o

.data%z154      0x00000000        0x0
 .data          0x00000000        0x0 build/XC32-PIC32_ETH_SK_ETH795/production/_ext/1954962658/FileSystem.o

.bss%z155       0x00000000        0x0
 .bss           0x00000000        0x0 build/XC32-PIC32_ETH_SK_ETH795/production/_ext/1954962658/FTP.o

.data%z156      0x00000000        0x0
 .data          0x00000000        0x0 build/XC32-PIC32_ETH_SK_ETH795/production/_ext/1954962658/FTP.o

.data%z157      0x00000000        0x0
 .data          0x00000000        0x0 build/XC32-PIC32_ETH_SK_ETH795/production/_ext/1954962658/ETHPIC32IntMac.o

.bss%z158       0x00000000        0x0
 .bss           0x00000000        0x0 build/XC32-PIC32_ETH_SK_ETH795/production/_ext/1954962658/ETHPIC32ExtPhyDP83848.o

.data%z159      0x00000000        0x0
 .data          0x00000000        0x0 build/XC32-PIC32_ETH_SK_ETH795/production/_ext/1954962658/ETHPIC32ExtPhyDP83848.o

.bss%z160       0x00000000        0x0
 .bss           0x00000000        0x0 build/XC32-PIC32_ETH_SK_ETH795/production/_ext/1954962658/ETHPIC32ExtPhy.o

.data%z161      0x00000000        0x0
 .data          0x00000000        0x0 build/XC32-PIC32_ETH_SK_ETH795/production/_ext/1954962658/ETHPIC32ExtPhy.o

.bss%z162       0x00000000        0x0
 .bss           0x00000000        0x0 build/XC32-PIC32_ETH_SK_ETH795/production/_ext/1954962658/ENCX24J600.o

.data%z163      0x00000000        0x0
 .data          0x00000000        0x0 build/XC32-PIC32_ETH_SK_ETH795/production/_ext/1954962658/ENCX24J600.o

.bss%z164       0x00000000        0x0
 .bss           0x00000000        0x0 build/XC32-PIC32_ETH_SK_ETH795/production/_ext/1954962658/ENC28J60.o

.data%z165      0x00000000        0x0
 .data          0x00000000        0x0 build/XC32-PIC32_ETH_SK_ETH795/production/_ext/1954962658/ENC28J60.o

.bss%z166       0x00000000        0x0
 .bss           0x00000000        0x0 build/XC32-PIC32_ETH_SK_ETH795/production/_ext/1954962658/DynDNS.o

.data%z167      0x00000000        0x0
 .data          0x00000000        0x0 build/XC32-PIC32_ETH_SK_ETH795/production/_ext/1954962658/DynDNS.o

.bss%z168       0x00000000        0x0
 .bss           0x00000000        0x0 build/XC32-PIC32_ETH_SK_ETH795/production/_ext/1954962658/Delay.o

.data%z169      0x00000000        0x0
 .data          0x00000000        0x0 build/XC32-PIC32_ETH_SK_ETH795/production/_ext/1954962658/Delay.o

.bss%z170       0x00000000        0x0
 .bss           0x00000000        0x0 build/XC32-PIC32_ETH_SK_ETH795/production/_ext/1954962658/DNSs.o

.data%z171      0x00000000        0x0
 .data          0x00000000        0x0 build/XC32-PIC32_ETH_SK_ETH795/production/_ext/1954962658/DNSs.o

.data%z172      0x00000000        0x0
 .data          0x00000000        0x0 build/XC32-PIC32_ETH_SK_ETH795/production/_ext/1954962658/DNS.o

.bss%z173       0x00000000        0x0
 .bss           0x00000000        0x0 build/XC32-PIC32_ETH_SK_ETH795/production/_ext/1954962658/DHCPs.o

.data%z174      0x00000000        0x0
 .data          0x00000000        0x0 build/XC32-PIC32_ETH_SK_ETH795/production/_ext/1954962658/DHCPs.o

.data%z175      0x00000000        0x0
 .data          0x00000000        0x0 build/XC32-PIC32_ETH_SK_ETH795/production/_ext/1954962658/DHCP.o

.bss%z176       0x00000000        0x0
 .bss           0x00000000        0x0 build/XC32-PIC32_ETH_SK_ETH795/production/_ext/1954962658/BigInt_helper_PIC32.o

.data%z177      0x00000000        0x0
 .data          0x00000000        0x0 build/XC32-PIC32_ETH_SK_ETH795/production/_ext/1954962658/BigInt_helper_PIC32.o

.bss%z178       0x00000000        0x0
 .bss           0x00000000        0x0 build/XC32-PIC32_ETH_SK_ETH795/production/_ext/1954962658/BigInt.o

.data%z179      0x00000000        0x0
 .data          0x00000000        0x0 build/XC32-PIC32_ETH_SK_ETH795/production/_ext/1954962658/BigInt.o

.data%z180      0x00000000        0x0
 .data          0x00000000        0x0 build/XC32-PIC32_ETH_SK_ETH795/production/_ext/1954962658/BerkeleyAPI.o

.data%z181      0x00000000        0x0
 .data          0x00000000        0x0 build/XC32-PIC32_ETH_SK_ETH795/production/_ext/1954962658/AutoIP.o

.bss%z182       0x00000000        0x0
 .bss           0x00000000        0x0 build/XC32-PIC32_ETH_SK_ETH795/production/_ext/1954962658/Announce.o

.data%z183      0x00000000        0x0
 .data          0x00000000        0x0 build/XC32-PIC32_ETH_SK_ETH795/production/_ext/1954962658/Announce.o

.data%z184      0x00000000        0x0
 .data          0x00000000        0x0 build/XC32-PIC32_ETH_SK_ETH795/production/_ext/1954962658/ARP.o

.bss%z185       0x00000000        0x0
 .bss           0x00000000        0x0 build/XC32-PIC32_ETH_SK_ETH795/production/_ext/1954962658/ARCFOUR.o

.data%z186      0x00000000        0x0
 .data          0x00000000        0x0 build/XC32-PIC32_ETH_SK_ETH795/production/_ext/1954962658/ARCFOUR.o

.bss%z187       0x00000000        0x0
 .bss           0x00000000        0x0 build/XC32-PIC32_ETH_SK_ETH795/production/_ext/1472/UARTConfig.o

.data%z188      0x00000000        0x0
 .data          0x00000000        0x0 build/XC32-PIC32_ETH_SK_ETH795/production/_ext/1472/UARTConfig.o

.bss%z189       0x00000000        0x0
 .bss           0x00000000        0x0 build/XC32-PIC32_ETH_SK_ETH795/production/_ext/1472/SMTPDemo.o

.data%z190      0x00000000        0x0
 .data          0x00000000        0x0 build/XC32-PIC32_ETH_SK_ETH795/production/_ext/1472/SMTPDemo.o

.bss%z191       0x00000000        0x0
 .bss           0x00000000        0x0 build/XC32-PIC32_ETH_SK_ETH795/production/_ext/1472/PingDemo.o

.data%z192      0x00000000        0x0
 .data          0x00000000        0x0 build/XC32-PIC32_ETH_SK_ETH795/production/_ext/1472/PingDemo.o

.bss%z193       0x00000000        0x0
 .bss           0x00000000        0x0 build/XC32-PIC32_ETH_SK_ETH795/production/_ext/1472/GenericTCPServer.o

.data%z194      0x00000000        0x0
 .data          0x00000000        0x0 build/XC32-PIC32_ETH_SK_ETH795/production/_ext/1472/GenericTCPServer.o

.bss%z195       0x00000000        0x0
 .bss           0x00000000        0x0 build/XC32-PIC32_ETH_SK_ETH795/production/_ext/1472/GenericTCPClient.o

.data%z196      0x00000000        0x0
 .data          0x00000000        0x0 build/XC32-PIC32_ETH_SK_ETH795/production/_ext/1472/BerkeleyUDPClientDemo.o

.bss%z197       0x00000000        0x0
 .bss           0x00000000        0x0 build/XC32-PIC32_ETH_SK_ETH795/production/_ext/1472/BerkeleyTCPServerDemo.o

.data%z198      0x00000000        0x0
 .data          0x00000000        0x0 build/XC32-PIC32_ETH_SK_ETH795/production/_ext/1472/BerkeleyTCPServerDemo.o

.bss%z199       0x00000000        0x0
 .bss           0x00000000        0x0 c:/program files (x86)/microchip/xc32/v1.10/bin/../lib/gcc/pic32mx/4.5.1/../../../../pic32mx/lib/crt0.o

.data%z200      0x00000000        0x0
 .data          0x00000000        0x0 c:/program files (x86)/microchip/xc32/v1.10/bin/../lib/gcc/pic32mx/4.5.1/../../../../pic32mx/lib/crt0.o

.text           0x9d000020    0x13fc4
 .text          0x9d000020     0x8674 build/XC32-PIC32_ETH_SK_ETH795/production/_ext/1954962658/TCP.o
                0x9d00014c                TCPInit
                0x9d000450                TCPOpen
                0x9d0008e0                TCPWasReset
                0x9d000994                TCPIsConnected
                0x9d000a08                TCPDisconnect
                0x9d000cb8                TCPClose
                0x9d000d44                TCPGetRemoteInfo
                0x9d000ddc                TCPFlush
                0x9d000e7c                TCPIsPutReady
                0x9d001074                TCPPut
                0x9d0013e8                TCPPutArray
                0x9d001870                TCPPutString
                0x9d0018e0                TCPGetTxFIFOFull
                0x9d0019b0                TCPDiscard
                0x9d001a58                TCPIsGetReady
                0x9d001bf8                TCPGet
                0x9d001e88                TCPGetArray
                0x9d002250                TCPGetRxFIFOFree
                0x9d002318                TCPPeekArray
                0x9d0025c4                TCPPeek
                0x9d002624                TCPFindArrayEx
                0x9d002c4c                TCPFindEx
                0x9d002cc4                TCPTick
                0x9d003db4                TCPProcess
                0x9d007db8                TCPAdjustFIFOSize
 .text          0x9d008694     0x199c build/XC32-PIC32_ETH_SK_ETH795/production/_ext/1954962658/DHCPs.o
                0x9d008694                DHCPServerTask
                0x9d009fa8                DHCPServer_Disable
                0x9d009ffc                DHCPServer_Enable
 .text          0x9d00a030     0x1998 build/XC32-PIC32_ETH_SK_ETH795/production/_ext/1954962658/DHCP.o
                0x9d00a030                DHCPInit
                0x9d00a134                DHCPDisable
                0x9d00a1a4                DHCPEnable
                0x9d00a214                DHCPIsEnabled
                0x9d00a24c                DHCPIsBound
                0x9d00a288                DHCPStateChanged
                0x9d00a2ec                DHCPIsServerDetected
                0x9d00a328                DHCPTempIPAddr
                0x9d00a364                DHCPTask
 .text          0x9d00b9c8     0x1978 build/XC32-PIC32_ETH_SK_ETH795/production/_ext/1954962658/BerkeleyAPI.o
                0x9d00b9c8                BerkeleySocketInit
                0x9d00ba44                socket
                0x9d00bbbc                bind
                0x9d00bd3c                listen
                0x9d00bff8                accept
                0x9d00c2c8                connect
                0x9d00c5f4                send
                0x9d00c654                sendto
                0x9d00ca00                recv
                0x9d00cb78                recvfrom
                0x9d00cdd4                gethostname
                0x9d00cec8                closesocket
 .text          0x9d00d340     0x1318 build/XC32-PIC32_ETH_SK_ETH795/production/_ext/1954962658/UDP.o
                0x9d00d340                UDPInit
                0x9d00d3b0                UDPOpenEx
                0x9d00d604                UDPTask
                0x9d00db48                UDPIsOpened
                0x9d00db98                UDPClose
                0x9d00dc40                UDPSetTxBuffer
                0x9d00dca0                UDPSetRxBuffer
                0x9d00dcf0                UDPIsPutReady
                0x9d00dd7c                UDPPut
                0x9d00de08                UDPPutArray
                0x9d00deb0                UDPPutString
                0x9d00df08                UDPFlush
                0x9d00e0ec                UDPIsGetReady
                0x9d00e17c                UDPGet
                0x9d00e200                UDPGetArray
                0x9d00e2c0                UDPDiscard
                0x9d00e320                UDPProcess
 .text          0x9d00e658     0x1304 build/XC32-PIC32_ETH_SK_ETH795/production/_ext/1954962658/ETHPIC32ExtPhy.o
                0x9d00e658                EthPhyRestartNegotiation
                0x9d00e6ec                EthPhyGetHwConfigFlags
                0x9d00e75c                EthPhyInit
                0x9d00ec3c                EthPhyNegotiationComplete
                0x9d00ee9c                EthPhyGetNegotiationResult
                0x9d00f1e0                EthPhyGetLinkStatus
                0x9d00f2b8                EthPhyReset
                0x9d00f3c4                EthPhyScanLinkStart
                0x9d00f400                EthPhyScanLinkRead
                0x9d00f46c                EthPhyScanLinkStop
 .text          0x9d00f95c     0x109c build/XC32-PIC32_ETH_SK_ETH795/production/_ext/1954962658/Helpers.o
                0x9d00f95c                LFSRSeedRand
                0x9d00f9e0                LFSRRand
                0x9d00fa58                GenerateRandomDWORD
                0x9d00fcb4                StringToIPAddress
                0x9d010064                uitoa
                0x9d010190                hexatob
                0x9d010284                btohexa_high
                0x9d0102e8                btohexa_low
                0x9d01034c                stricmppgm2ram
                0x9d0104b8                swaps
                0x9d010504                swapl
                0x9d0105ec                CalcIPChecksum
                0x9d0106d4                strupr
                0x9d010770                FormatNetBIOSName
                0x9d010838                strnchr
                0x9d0108ec                strncpy_m
 .text          0x9d0109f8      0xf64 build/XC32-PIC32_ETH_SK_ETH795/production/_ext/1954962658/ETHPIC32IntMac.o
                0x9d0109f8                MACInit
                0x9d010e08                MACIsLinked
                0x9d010e30                MACGetTxBaseAddr
                0x9d010e70                MACGetHttpBaseAddr
                0x9d010e98                MACGetSslBaseAddr
                0x9d010ec0                MACSetWritePtr
                0x9d010ef8                MACIsTxReady
                0x9d0110b4                MACPut
                0x9d0110f0                MACPutArray
                0x9d011150                MACPutHeader
                0x9d011234                MACFlush
                0x9d0112a4                MACDiscardRx
                0x9d011304                MACGetHeader
                0x9d011530                MACSetReadPtrInRx
                0x9d01156c                MACSetReadPtr
                0x9d0115a4                MACGet
                0x9d0115d8                MACGetArray
                0x9d011648                MACGetFreeRxSize
                0x9d01169c                MACMemCopyAsync
                0x9d011740                MACIsMemCopyDone
                0x9d011764                CalcIPBufferChecksum
                0x9d0117ac                MACCalcRxChecksum
 .text          0x9d01195c      0xf48 build/XC32-PIC32_ETH_SK_ETH795/production/_ext/1954962658/DNS.o
                0x9d01195c                DNSBeginUsage
                0x9d0119b0                DNSEndUsage
                0x9d011a20                DNSResolve
                0x9d011ab4                DNSIsResolved
 .text          0x9d0128a4      0xe6c build/XC32-PIC32_ETH_SK_ETH795/production/_ext/1954962658/AutoIP.o
                0x9d0128a4                AutoIPInit
                0x9d01293c                AutoIPIsConfigured
                0x9d012974                AutoIPConfigIsInProgress
                0x9d0129b0                AutoIPTasks
                0x9d0133d4                AutoIPConflict
                0x9d01354c                AutoIPDisable
                0x9d0135ec                AutoIPEnable
                0x9d013634                AutoIPIsDisabled
                0x9d013668                AutoIPRandSeed
                0x9d0136a4                AutoIPRand
 .text          0x9d013710      0x8d4 build/XC32-PIC32_ETH_SK_ETH795/production/_ext/1472/MainDemo.o
                0x9d013710                _general_exception_handler
                0x9d01373c                main
                0x9d013864                DisplayIPValue

.rodata         0x9d013fe4      0x7d4
 .rodata        0x9d013fe4      0x7d4 c:/program files (x86)/microchip/xc32/v1.10/bin/../lib/gcc/pic32mx/4.5.1/../../../../pic32mx/lib\libmchp_peripheral_32MX795F512L.a(int_tbl_lib.o)
                0x9d013fe4                __IntSrcTbl
                0x9d014500                __IntVectorTbl

.text           0x9d0147b8     0x25e0
 .text          0x9d0147b8      0x730 build/XC32-PIC32_ETH_SK_ETH795/production/_ext/1954962658/ARP.o
                0x9d0147b8                ARPSendPkt
                0x9d014960                ARPInit
                0x9d0149ec                ARPProcess
                0x9d014c98                ARPResolve
                0x9d014d7c                ARPIsResolved
                0x9d014e5c                SwapARPPacket
 .text          0x9d014ee8      0x650 build/XC32-PIC32_ETH_SK_ETH795/production/_ext/1954962658/ICMP.o
                0x9d014ee8                ICMPProcess
                0x9d015114                ICMPSendPing
                0x9d01516c                ICMPSendPingToHost
                0x9d0151d0                ICMPGetReply
                0x9d0154b8                ICMPBeginUsage
                0x9d01550c                ICMPEndUsage
 .text          0x9d015538      0x4b4 build/XC32-PIC32_ETH_SK_ETH795/production/_ext/1472/BerkeleyUDPClientDemo.o
                0x9d015538                BerkeleyUDPClientDemo
                0x9d015954                BerkeleySNTPGetUTCSeconds
 .text          0x9d0159ec      0x464 c:/program files (x86)/microchip/xc32/v1.10/bin/../lib/gcc/pic32mx/4.5.1\libgcc.a(_umoddi3.o)
                0x9d0159ec                __umoddi3
 .text          0x9d015e50      0x448 c:/program files (x86)/microchip/xc32/v1.10/bin/../lib/gcc/pic32mx/4.5.1\libgcc.a(_udivdi3.o)
                0x9d015e50                __udivdi3
 .text          0x9d016298      0x3fc build/XC32-PIC32_ETH_SK_ETH795/production/_ext/1954962658/StackTsk.o
                0x9d016298                StackInit
                0x9d01636c                StackTask
                0x9d016664                StackApplications
 .text          0x9d016694      0x3ac build/XC32-PIC32_ETH_SK_ETH795/production/_ext/1954962658/Tick.o
                0x9d016694                TickInit
                0x9d0167d8                TickGet
                0x9d016858                TickGetDiv256
                0x9d0168d8                TickGetDiv64K
                0x9d016958                TickConvertToMilliseconds
                0x9d0169c0                _T1Interrupt
 .text          0x9d016a40      0x358 build/XC32-PIC32_ETH_SK_ETH795/production/_ext/1472/GenericTCPClient.o
                0x9d016a40                GenericTCPClient

.dinit          0x9d016d98      0x350
 .dinit         0x9d016d98      0x350 data_init

.text           0x9d0170e8      0x8f0
 .text          0x9d0170e8      0x348 build/XC32-PIC32_ETH_SK_ETH795/production/_ext/1954962658/IP.o
                0x9d0170e8                IPGetHeader
                0x9d017228                IPPutHeader
                0x9d017354                IPSetRxBuffer
 .text          0x9d017430      0x2ec build/XC32-PIC32_ETH_SK_ETH795/production/_ext/1472/BerkeleyTCPServerDemo.o
                0x9d017430                BerkeleyTCPServerDemo
 .text          0x9d01771c      0x2bc build/XC32-PIC32_ETH_SK_ETH795/production/_ext/1472/BerkeleyTCPClientDemo.o
                0x9d01771c                BerkeleyTCPClientDemo

.text.malloc    0x9d0179d8      0x288
 .text.malloc   0x9d0179d8      0x288 c:/program files (x86)/microchip/xc32/v1.10/bin/../lib/gcc/pic32mx/4.5.1/../../../../pic32mx/lib\libc.a(malloc.o)
                0x9d0179d8                malloc

.text           0x9d017c60      0x264
 .text          0x9d017c60      0x264 build/XC32-PIC32_ETH_SK_ETH795/production/_ext/1472/GenericTCPServer.o
                0x9d017c60                GenericTCPServer

.text.EthRxBuffersAppend
                0x9d017ec4      0x264
 .text.EthRxBuffersAppend
                0x9d017ec4      0x264 c:/program files (x86)/microchip/xc32/v1.10/bin/../lib/gcc/pic32mx/4.5.1/../../../../pic32mx/lib\libmchp_peripheral_32MX795F512L.a(eth_rx_buffers_append_lib.o)
                0x9d017ec4                EthRxBuffersAppend

.text._EthAckPacket
                0x9d018128      0x1dc
 .text._EthAckPacket
                0x9d018128      0x1dc c:/program files (x86)/microchip/xc32/v1.10/bin/../lib/gcc/pic32mx/4.5.1/../../../../pic32mx/lib\libmchp_peripheral_32MX795F512L.a(eth_ack_packet_lib.o)
                0x9d018128                _EthAckPacket

.text           0x9d018304      0x1c4
 .text          0x9d018304      0x1c4 build/XC32-PIC32_ETH_SK_ETH795/production/_ext/1954962658/ETHPIC32ExtPhyDP83848.o
                0x9d018304                EthPhyConfigureMII
                0x9d0183b0                EthPhyConfigureMdix
                0x9d01847c                EthPhyMIIMAddress
                0x9d0184a0                EthPhyMIIMClock

.text._sbrk_init
                0x9d0184c8      0x194
 .text._sbrk_init
                0x9d0184c8      0x194 c:/program files (x86)/microchip/xc32/v1.10/bin/../lib/gcc/pic32mx/4.5.1/../../../../pic32mx/lib\libpic32.a(sbrk.o)
                0x9d0184c8                _sbrk_init

.text._EthRxAckBuffer
                0x9d01865c      0x184
 .text._EthRxAckBuffer
                0x9d01865c      0x184 c:/program files (x86)/microchip/xc32/v1.10/bin/../lib/gcc/pic32mx/4.5.1/../../../../pic32mx/lib\libmchp_peripheral_32MX795F512L.a(eth_ack_packet_lib.o)

.text.EthRxGetPacket
                0x9d0187e0      0x180
 .text.EthRxGetPacket
                0x9d0187e0      0x180 c:/program files (x86)/microchip/xc32/v1.10/bin/../lib/gcc/pic32mx/4.5.1/../../../../pic32mx/lib\libmchp_peripheral_32MX795F512L.a(eth_rx_get_packet_lib.o)
                0x9d0187e0                EthRxGetPacket

.text.realloc   0x9d018960      0x17c
 .text.realloc  0x9d018960      0x17c c:/program files (x86)/microchip/xc32/v1.10/bin/../lib/gcc/pic32mx/4.5.1/../../../../pic32mx/lib\libc.a(malloc.o)
                0x9d018960                realloc

.text           0x9d018adc      0x428
 .text          0x9d018adc      0x168 c:/program files (x86)/microchip/xc32/v1.10/bin/../lib/gcc/pic32mx/4.5.1/../../../../pic32mx/lib\libpic32.a(memcpy.o)
                0x9d018adc                memcpy
 .text          0x9d018c44      0x168 c:/program files (x86)/microchip/xc32/v1.10/bin/../lib/gcc/pic32mx/4.5.1/../../../../pic32mx/lib\libpic32.a(strlen.o)
                0x9d018c44                strlen
 .text          0x9d018dac      0x158 build/XC32-PIC32_ETH_SK_ETH795/production/_ext/1472/PingDemo.o
                0x9d018dac                PingDemo

.text.EthTxSendPacket
                0x9d018f04      0x150
 .text.EthTxSendPacket
                0x9d018f04      0x150 c:/program files (x86)/microchip/xc32/v1.10/bin/../lib/gcc/pic32mx/4.5.1/../../../../pic32mx/lib\libmchp_peripheral_32MX795F512L.a(eth_tx_packet_lib.o)
                0x9d018f04                EthTxSendPacket

.text._EthAppendBusyList
                0x9d019054      0x144
 .text._EthAppendBusyList
                0x9d019054      0x144 c:/program files (x86)/microchip/xc32/v1.10/bin/../lib/gcc/pic32mx/4.5.1/../../../../pic32mx/lib\libmchp_peripheral_32MX795F512L.a(_eth_append_busy_list_lib.o)
                0x9d019054                _EthAppendBusyList

.text.EthDescriptorsPoolAdd
                0x9d019198      0x134
 .text.EthDescriptorsPoolAdd
                0x9d019198      0x134 c:/program files (x86)/microchip/xc32/v1.10/bin/../lib/gcc/pic32mx/4.5.1/../../../../pic32mx/lib\libmchp_peripheral_32MX795F512L.a(eth_descriptors_add_lib.o)
                0x9d019198                EthDescriptorsPoolAdd

.text.EthDescriptorsAdd
                0x9d0192cc      0x12c
 .text.EthDescriptorsAdd
                0x9d0192cc      0x12c c:/program files (x86)/microchip/xc32/v1.10/bin/../lib/gcc/pic32mx/4.5.1/../../../../pic32mx/lib\libmchp_peripheral_32MX795F512L.a(eth_descriptors_add_lib.o)
                0x9d0192cc                EthDescriptorsAdd

.text           0x9d0193f8       0xf0
 .text          0x9d0193f8       0xf0 build/XC32-PIC32_ETH_SK_ETH795/production/_ext/1954962658/Delay.o
                0x9d0193f8                DelayMs
                0x9d01948c                Delay10us

.text.general_exception
                0x9d0194e8       0xd0
 .text.general_exception
                0x9d0194e8       0xd0 c:/program files (x86)/microchip/xc32/v1.10/bin/../lib/gcc/pic32mx/4.5.1/../../../../pic32mx/lib\libpic32.a(general-exception.o)
                0x9d0194e8                _general_exception_context

.text.EthTxSendBuffer
                0x9d0195b8       0xc4
 .text.EthTxSendBuffer
                0x9d0195b8       0xc4 c:/program files (x86)/microchip/xc32/v1.10/bin/../lib/gcc/pic32mx/4.5.1/../../../../pic32mx/lib\libmchp_peripheral_32MX795F512L.a(eth_tx_packet_lib.o)
                0x9d0195b8                EthTxSendBuffer

.text._sbrk     0x9d01967c       0xc4
 .text._sbrk    0x9d01967c       0xc4 c:/program files (x86)/microchip/xc32/v1.10/bin/../lib/gcc/pic32mx/4.5.1/../../../../pic32mx/lib\libpic32.a(sbrk.o)
                0x9d01967c                _sbrk

.text.EthInit   0x9d019740       0xb4
 .text.EthInit  0x9d019740       0xb4 c:/program files (x86)/microchip/xc32/v1.10/bin/../lib/gcc/pic32mx/4.5.1/../../../../pic32mx/lib\libmchp_peripheral_32MX795F512L.a(eth_init_lib.o)
                0x9d019740                EthInit

.text.EthMACOpen
                0x9d0197f4       0xb4
 .text.EthMACOpen
                0x9d0197f4       0xb4 c:/program files (x86)/microchip/xc32/v1.10/bin/../lib/gcc/pic32mx/4.5.1/../../../../pic32mx/lib\libmchp_peripheral_32MX795F512L.a(eth_mac_open_lib.o)
                0x9d0197f4                EthMACOpen

.text._EthTxSchedBuffer
                0x9d0198a8       0xac
 .text._EthTxSchedBuffer
                0x9d0198a8       0xac c:/program files (x86)/microchip/xc32/v1.10/bin/../lib/gcc/pic32mx/4.5.1/../../../../pic32mx/lib\libmchp_peripheral_32MX795F512L.a(eth_tx_packet_lib.o)

.text           0x9d019954      0x140
 .text          0x9d019954       0xa8 c:/program files (x86)/microchip/xc32/v1.10/bin/../lib/gcc/pic32mx/4.5.1/../../../../pic32mx/lib\libpic32.a(memset.o)
                0x9d019954                memset
 .text          0x9d0199fc       0x98 c:/program files (x86)/microchip/xc32/v1.10/bin/../lib/gcc/pic32mx/4.5.1/../../../../pic32mx/lib\libpic32.a(memcmp.o)
                0x9d0199fc                memcmp

.text._EthTxSchedList
                0x9d019a94       0x8c
 .text._EthTxSchedList
                0x9d019a94       0x8c c:/program files (x86)/microchip/xc32/v1.10/bin/../lib/gcc/pic32mx/4.5.1/../../../../pic32mx/lib\libmchp_peripheral_32MX795F512L.a(eth_tx_packet_lib.o)

.text.EthMIIMConfig
                0x9d019b20       0x80
 .text.EthMIIMConfig
                0x9d019b20       0x80 c:/program files (x86)/microchip/xc32/v1.10/bin/../lib/gcc/pic32mx/4.5.1/../../../../pic32mx/lib\libmchp_peripheral_32MX795F512L.a(eth_miim_access.o)
                0x9d019b20                EthMIIMConfig

.text.EthTxGetBufferStatus
                0x9d019ba0       0x70
 .text.EthTxGetBufferStatus
                0x9d019ba0       0x70 c:/program files (x86)/microchip/xc32/v1.10/bin/../lib/gcc/pic32mx/4.5.1/../../../../pic32mx/lib\libmchp_peripheral_32MX795F512L.a(eth_tx_packet_lib.o)
                0x9d019ba0                EthTxGetBufferStatus

.text.EthRxFiltersPMSet
                0x9d019c10       0x6c
 .text.EthRxFiltersPMSet
                0x9d019c10       0x6c c:/program files (x86)/microchip/xc32/v1.10/bin/../lib/gcc/pic32mx/4.5.1/../../../../pic32mx/lib\libmchp_peripheral_32MX795F512L.a(eth_rx_filters_lib.o)
                0x9d019c10                EthRxFiltersPMSet

.rodata         0x9d019c7c       0x68
 .rodata        0x9d019c7c       0x68 build/XC32-PIC32_ETH_SK_ETH795/production/_ext/1472/GenericTCPClient.o

.text.strncpy   0x9d019ce4       0x60
 .text.strncpy  0x9d019ce4       0x60 c:/program files (x86)/microchip/xc32/v1.10/bin/../lib/gcc/pic32mx/4.5.1/../../../../pic32mx/lib\libc.a(strncpy.o)
                0x9d019ce4                strncpy

.text.calloc    0x9d019d44       0x5c
 .text.calloc   0x9d019d44       0x5c c:/program files (x86)/microchip/xc32/v1.10/bin/../lib/gcc/pic32mx/4.5.1/../../../../pic32mx/lib\libc.a(calloc.o)
                0x9d019d44                calloc

.text.INTEnable
                0x9d019da0       0x58
 .text.INTEnable
                0x9d019da0       0x58 c:/program files (x86)/microchip/xc32/v1.10/bin/../lib/gcc/pic32mx/4.5.1/../../../../pic32mx/lib\libmchp_peripheral_32MX795F512L.a(int_tbl_lib.o)
                0x9d019da0                INTEnable

.rodata         0x9d019df8       0x54
 .rodata        0x9d019df8       0x54 c:/program files (x86)/microchip/xc32/v1.10/bin/../lib/gcc/pic32mx/4.5.1/../../../../pic32mx/lib\libmchp_peripheral_32MX795F512L.a(_ports_tbl_libp.o)
                0x9d019df8                PortRegTbl

.text.sbrk      0x9d019e4c       0x50
 .text.sbrk     0x9d019e4c       0x50 c:/program files (x86)/microchip/xc32/v1.10/bin/../lib/gcc/pic32mx/4.5.1/../../../../pic32mx/lib\libpic32.a(sbrk.o)
                0x9d019e4c                sbrk

.text.EthMACSetAddress
                0x9d019e9c       0x48
 .text.EthMACSetAddress
                0x9d019e9c       0x48 c:/program files (x86)/microchip/xc32/v1.10/bin/../lib/gcc/pic32mx/4.5.1/../../../../pic32mx/lib\libmchp_peripheral_32MX795F512L.a(eth_mac_set_address_max_lib.o)
                0x9d019e9c                EthMACSetAddress

.text.EthMACGetAddress
                0x9d019ee4       0x44
 .text.EthMACGetAddress
                0x9d019ee4       0x44 c:/program files (x86)/microchip/xc32/v1.10/bin/../lib/gcc/pic32mx/4.5.1/../../../../pic32mx/lib\libmchp_peripheral_32MX795F512L.a(eth_mac_set_address_max_lib.o)
                0x9d019ee4                EthMACGetAddress

.text.EthMIIMReadStart
                0x9d019f28       0x40
 .text.EthMIIMReadStart
                0x9d019f28       0x40 c:/program files (x86)/microchip/xc32/v1.10/bin/../lib/gcc/pic32mx/4.5.1/../../../../pic32mx/lib\libmchp_peripheral_32MX795F512L.a(eth_miim_access.o)
                0x9d019f28                EthMIIMReadStart

.text.PORTSetPinsDigitalIn
                0x9d019f68       0x40
 .text.PORTSetPinsDigitalIn
                0x9d019f68       0x40 c:/program files (x86)/microchip/xc32/v1.10/bin/../lib/gcc/pic32mx/4.5.1/../../../../pic32mx/lib\libmchp_peripheral_32MX795F512L.a(port_set_pins_digital_in_lib.o)
                0x9d019f68                PORTSetPinsDigitalIn

.text.PORTSetPinsDigitalOut
                0x9d019fa8       0x40
 .text.PORTSetPinsDigitalOut
                0x9d019fa8       0x40 c:/program files (x86)/microchip/xc32/v1.10/bin/../lib/gcc/pic32mx/4.5.1/../../../../pic32mx/lib\libmchp_peripheral_32MX795F512L.a(port_set_pins_digital_out_lib.o)
                0x9d019fa8                PORTSetPinsDigitalOut

.text.EthRxGetBuffer
                0x9d019fe8       0x3c
 .text.EthRxGetBuffer
                0x9d019fe8       0x3c c:/program files (x86)/microchip/xc32/v1.10/bin/../lib/gcc/pic32mx/4.5.1/../../../../pic32mx/lib\libmchp_peripheral_32MX795F512L.a(eth_rx_get_packet_lib.o)
                0x9d019fe8                EthRxGetBuffer

.text.INTSetVectorPriority
                0x9d01a024       0x3c
 .text.INTSetVectorPriority
                0x9d01a024       0x3c c:/program files (x86)/microchip/xc32/v1.10/bin/../lib/gcc/pic32mx/4.5.1/../../../../pic32mx/lib\libmchp_peripheral_32MX795F512L.a(int_tbl_lib.o)
                0x9d01a024                INTSetVectorPriority

.text.INTSetVectorSubPriority
                0x9d01a060       0x3c
 .text.INTSetVectorSubPriority
                0x9d01a060       0x3c c:/program files (x86)/microchip/xc32/v1.10/bin/../lib/gcc/pic32mx/4.5.1/../../../../pic32mx/lib\libmchp_peripheral_32MX795F512L.a(int_tbl_lib.o)
                0x9d01a060                INTSetVectorSubPriority

.text           0x9d01a09c       0x38
 .text          0x9d01a09c       0x38 c:/program files (x86)/microchip/xc32/v1.10/bin/../lib/gcc/pic32mx/4.5.1/../../../../pic32mx/lib/crt0.o
                0x9d01a0c8                __crt0_exit

.rodata         0x9d01a0d4       0x38
 .rodata        0x9d01a0d4       0x38 build/XC32-PIC32_ETH_SK_ETH795/production/_ext/1954962658/TCP.o
                0x9d01a0d4                TCPSocketInitializer

.text._EthFindPacket
                0x9d01a10c       0x38
 .text._EthFindPacket
                0x9d01a10c       0x38 c:/program files (x86)/microchip/xc32/v1.10/bin/../lib/gcc/pic32mx/4.5.1/../../../../pic32mx/lib\libmchp_peripheral_32MX795F512L.a(eth_tx_packet_lib.o)
                0x9d01a10c                _EthFindPacket

.text.EthMIIMWriteStart
                0x9d01a144       0x38
 .text.EthMIIMWriteStart
                0x9d01a144       0x38 c:/program files (x86)/microchip/xc32/v1.10/bin/../lib/gcc/pic32mx/4.5.1/../../../../pic32mx/lib\libmchp_peripheral_32MX795F512L.a(eth_miim_access.o)
                0x9d01a144                EthMIIMWriteStart

.text.EthMIIMScanStart
                0x9d01a17c       0x34
 .text.EthMIIMScanStart
                0x9d01a17c       0x34 c:/program files (x86)/microchip/xc32/v1.10/bin/../lib/gcc/pic32mx/4.5.1/../../../../pic32mx/lib\libmchp_peripheral_32MX795F512L.a(eth_miim_access.o)
                0x9d01a17c                EthMIIMScanStart

.text.INTEnableSystemMultiVectoredInt
                0x9d01a1b0       0x34
 .text.INTEnableSystemMultiVectoredInt
                0x9d01a1b0       0x34 c:/program files (x86)/microchip/xc32/v1.10/bin/../lib/gcc/pic32mx/4.5.1/../../../../pic32mx/lib\libmchp_peripheral_32MX795F512L.a(int_enable_mv_int_lib.o)
                0x9d01a1b0                INTEnableSystemMultiVectoredInt

.text.EthTxAcknowledgeBuffer
                0x9d01a1e4       0x30
 .text.EthTxAcknowledgeBuffer
                0x9d01a1e4       0x30 c:/program files (x86)/microchip/xc32/v1.10/bin/../lib/gcc/pic32mx/4.5.1/../../../../pic32mx/lib\libmchp_peripheral_32MX795F512L.a(eth_ack_packet_lib.o)
                0x9d01a1e4                EthTxAcknowledgeBuffer

.text.EthTxAckBuffer
                0x9d01a214       0x30
 .text.EthTxAckBuffer
                0x9d01a214       0x30 c:/program files (x86)/microchip/xc32/v1.10/bin/../lib/gcc/pic32mx/4.5.1/../../../../pic32mx/lib\libmchp_peripheral_32MX795F512L.a(eth_ack_packet_lib.o)
                0x9d01a214                EthTxAckBuffer

.text.EthRxSetBufferSize
                0x9d01a244       0x30
 .text.EthRxSetBufferSize
                0x9d01a244       0x30 c:/program files (x86)/microchip/xc32/v1.10/bin/../lib/gcc/pic32mx/4.5.1/../../../../pic32mx/lib\libmchp_peripheral_32MX795F512L.a(eth_rx_set_buffer_size_lib.o)
                0x9d01a244                EthRxSetBufferSize

.text.INTGetVectorPriority
                0x9d01a274       0x30
 .text.INTGetVectorPriority
                0x9d01a274       0x30 c:/program files (x86)/microchip/xc32/v1.10/bin/../lib/gcc/pic32mx/4.5.1/../../../../pic32mx/lib\libmchp_peripheral_32MX795F512L.a(int_tbl_lib.o)
                0x9d01a274                INTGetVectorPriority

.text.INTGetVectorSubPriority
                0x9d01a2a4       0x30
 .text.INTGetVectorSubPriority
                0x9d01a2a4       0x30 c:/program files (x86)/microchip/xc32/v1.10/bin/../lib/gcc/pic32mx/4.5.1/../../../../pic32mx/lib\libmchp_peripheral_32MX795F512L.a(int_tbl_lib.o)
                0x9d01a2a4                INTGetVectorSubPriority

.text.INTClearFlag
                0x9d01a2d4       0x2c
 .text.INTClearFlag
                0x9d01a2d4       0x2c c:/program files (x86)/microchip/xc32/v1.10/bin/../lib/gcc/pic32mx/4.5.1/../../../../pic32mx/lib\libmchp_peripheral_32MX795F512L.a(int_tbl_lib.o)
                0x9d01a2d4                INTClearFlag

.text.INTSetFlag
                0x9d01a300       0x2c
 .text.INTSetFlag
                0x9d01a300       0x2c c:/program files (x86)/microchip/xc32/v1.10/bin/../lib/gcc/pic32mx/4.5.1/../../../../pic32mx/lib\libmchp_peripheral_32MX795F512L.a(int_tbl_lib.o)
                0x9d01a300                INTSetFlag

.text.INTGetFlag
                0x9d01a32c       0x2c
 .text.INTGetFlag
                0x9d01a32c       0x2c c:/program files (x86)/microchip/xc32/v1.10/bin/../lib/gcc/pic32mx/4.5.1/../../../../pic32mx/lib\libmchp_peripheral_32MX795F512L.a(int_tbl_lib.o)
                0x9d01a32c                INTGetFlag

.text.INTGetEnable
                0x9d01a358       0x2c
 .text.INTGetEnable
                0x9d01a358       0x2c c:/program files (x86)/microchip/xc32/v1.10/bin/../lib/gcc/pic32mx/4.5.1/../../../../pic32mx/lib\libmchp_peripheral_32MX795F512L.a(int_tbl_lib.o)
                0x9d01a358                INTGetEnable

.text._stub_sbd_memlayout
                0x9d01a384       0x2c
 .text._stub_sbd_memlayout
                0x9d01a384       0x2c c:/program files (x86)/microchip/xc32/v1.10/bin/../lib/gcc/pic32mx/4.5.1/../../../../pic32mx/lib\libpic32.a(sbrk.o)
                0x9d01a384                _stub_sbd_memlayout
                0x9d01a384                _sbd_memlayout

.text.EthMIIMReadResult
                0x9d01a3b0       0x28
 .text.EthMIIMReadResult
                0x9d01a3b0       0x28 c:/program files (x86)/microchip/xc32/v1.10/bin/../lib/gcc/pic32mx/4.5.1/../../../../pic32mx/lib\libmchp_peripheral_32MX795F512L.a(eth_miim_access.o)
                0x9d01a3b0                EthMIIMReadResult

.text.free      0x9d01a3d8       0x24
 .text.free     0x9d01a3d8       0x24 c:/program files (x86)/microchip/xc32/v1.10/bin/../lib/gcc/pic32mx/4.5.1/../../../../pic32mx/lib\libc.a(malloc.o)
                0x9d01a3d8                free

.text.EthMIIMScanResult
                0x9d01a3fc       0x20
 .text.EthMIIMScanResult
                0x9d01a3fc       0x20 c:/program files (x86)/microchip/xc32/v1.10/bin/../lib/gcc/pic32mx/4.5.1/../../../../pic32mx/lib\libmchp_peripheral_32MX795F512L.a(eth_miim_access.o)
                0x9d01a3fc                EthMIIMScanResult

.text.EthRxAcknowledgeBuffer
                0x9d01a41c       0x1c
 .text.EthRxAcknowledgeBuffer
                0x9d01a41c       0x1c c:/program files (x86)/microchip/xc32/v1.10/bin/../lib/gcc/pic32mx/4.5.1/../../../../pic32mx/lib\libmchp_peripheral_32MX795F512L.a(eth_ack_packet_lib.o)
                0x9d01a41c                EthRxAcknowledgeBuffer

.text.EthRxAckBuffer
                0x9d01a438       0x1c
 .text.EthRxAckBuffer
                0x9d01a438       0x1c c:/program files (x86)/microchip/xc32/v1.10/bin/../lib/gcc/pic32mx/4.5.1/../../../../pic32mx/lib\libmchp_peripheral_32MX795F512L.a(eth_ack_packet_lib.o)
                0x9d01a438                EthRxAckBuffer

.text.INTRestoreInterrupts
                0x9d01a454       0x1c
 .text.INTRestoreInterrupts
                0x9d01a454       0x1c c:/program files (x86)/microchip/xc32/v1.10/bin/../lib/gcc/pic32mx/4.5.1/../../../../pic32mx/lib\libmchp_peripheral_32MX795F512L.a(int_restore_interrupts_lib.o)
                0x9d01a454                INTRestoreInterrupts

.text.EthRxFiltersHTSet
                0x9d01a470       0x18
 .text.EthRxFiltersHTSet
                0x9d01a470       0x18 c:/program files (x86)/microchip/xc32/v1.10/bin/../lib/gcc/pic32mx/4.5.1/../../../../pic32mx/lib\libmchp_peripheral_32MX795F512L.a(eth_rx_filters_lib.o)
                0x9d01a470                EthRxFiltersHTSet

.text.CheKseg0CacheOff
                0x9d01a488       0x18
 .text.CheKseg0CacheOff
                0x9d01a488       0x18 c:/program files (x86)/microchip/xc32/v1.10/bin/../lib/gcc/pic32mx/4.5.1/../../../../pic32mx/lib\libmchp_peripheral_32MX795F512L.a(pcache.o)
                0x9d01a488                CheKseg0CacheOff

.text.CheKseg0CacheOn
                0x9d01a4a0       0x18
 .text.CheKseg0CacheOn
                0x9d01a4a0       0x18 c:/program files (x86)/microchip/xc32/v1.10/bin/../lib/gcc/pic32mx/4.5.1/../../../../pic32mx/lib\libmchp_peripheral_32MX795F512L.a(pcache.o)
                0x9d01a4a0                CheKseg0CacheOn

.text           0x9d01a4b8       0x18
 .text          0x9d01a4b8       0x18 c:/program files (x86)/microchip/xc32/v1.10/bin/../lib/gcc/pic32mx/4.5.1/../../../../pic32mx/lib\libpic32.a(default-nmi-handler.o)
                0x9d01a4b8                _nmi_handler

.rodata         0x9d01a4d0       0x28
 .rodata        0x9d01a4d0       0x14 build/XC32-PIC32_ETH_SK_ETH795/production/_ext/1472/PingDemo.o
 .rodata        0x9d01a4e4       0x14 build/XC32-PIC32_ETH_SK_ETH795/production/_ext/1472/MainDemo.o

.text.EthMACSetMaxFrame
                0x9d01a4f8       0x14
 .text.EthMACSetMaxFrame
                0x9d01a4f8       0x14 c:/program files (x86)/microchip/xc32/v1.10/bin/../lib/gcc/pic32mx/4.5.1/../../../../pic32mx/lib\libmchp_peripheral_32MX795F512L.a(eth_mac_set_address_max_lib.o)
                0x9d01a4f8                EthMACSetMaxFrame

.text.EthRxFiltersPMClr
                0x9d01a50c       0x14
 .text.EthRxFiltersPMClr
                0x9d01a50c       0x14 c:/program files (x86)/microchip/xc32/v1.10/bin/../lib/gcc/pic32mx/4.5.1/../../../../pic32mx/lib\libmchp_peripheral_32MX795F512L.a(eth_rx_filters_lib.o)
                0x9d01a50c                EthRxFiltersPMClr

.rodata         0x9d01a520       0x20
 .rodata        0x9d01a520       0x10 build/XC32-PIC32_ETH_SK_ETH795/production/_ext/1472/BerkeleyTCPClientDemo.o
 .rodata        0x9d01a530       0x10 build/XC32-PIC32_ETH_SK_ETH795/production/_ext/1472/BerkeleyUDPClientDemo.o

.text.EthRxFiltersSet
                0x9d01a540       0x10
 .text.EthRxFiltersSet
                0x9d01a540       0x10 c:/program files (x86)/microchip/xc32/v1.10/bin/../lib/gcc/pic32mx/4.5.1/../../../../pic32mx/lib\libmchp_peripheral_32MX795F512L.a(eth_rx_filters_lib.o)
                0x9d01a540                EthRxFiltersSet

.text.EthRxFiltersClr
                0x9d01a550       0x10
 .text.EthRxFiltersClr
                0x9d01a550       0x10 c:/program files (x86)/microchip/xc32/v1.10/bin/../lib/gcc/pic32mx/4.5.1/../../../../pic32mx/lib\libmchp_peripheral_32MX795F512L.a(eth_rx_filters_lib.o)
                0x9d01a550                EthRxFiltersClr

.text.EthRxFiltersWrite
                0x9d01a560       0x10
 .text.EthRxFiltersWrite
                0x9d01a560       0x10 c:/program files (x86)/microchip/xc32/v1.10/bin/../lib/gcc/pic32mx/4.5.1/../../../../pic32mx/lib\libmchp_peripheral_32MX795F512L.a(eth_rx_filters_lib.o)
                0x9d01a560                EthRxFiltersWrite

.rodata         0x9d01a570       0x10
 .rodata        0x9d01a570       0x10 c:/program files (x86)/microchip/xc32/v1.10/bin/../lib/gcc/pic32mx/4.5.1/../../../../pic32mx/lib\libmchp_peripheral_32MX795F512L.a(eth_miim_access.o)

.text._bootstrap_exception_handler
                0x9d01a580        0xc
 .text._bootstrap_exception_handler
                0x9d01a580        0xc c:/program files (x86)/microchip/xc32/v1.10/bin/../lib/gcc/pic32mx/4.5.1/../../../../pic32mx/lib\libpic32.a(default-bootstrap-exception-handler.o)
                0x9d01a580                _bootstrap_exception_handler

.rodata         0x9d01a58c        0x8
 .rodata        0x9d01a58c        0x8 build/XC32-PIC32_ETH_SK_ETH795/production/_ext/1954962658/ETHPIC32IntMac.o

.text.ReadCoreTimer
                0x9d01a594        0x8
 .text.ReadCoreTimer
                0x9d01a594        0x8 c:/program files (x86)/microchip/xc32/v1.10/bin/../lib/gcc/pic32mx/4.5.1/../../../../pic32mx/lib\libmchp_peripheral.a(read_core_timer_lib.o)
                0x9d01a594                ReadCoreTimer

.text.INTDisableInterrupts
                0x9d01a59c        0x8
 .text.INTDisableInterrupts
                0x9d01a59c        0x8 c:/program files (x86)/microchip/xc32/v1.10/bin/../lib/gcc/pic32mx/4.5.1/../../../../pic32mx/lib\libmchp_peripheral_32MX795F512L.a(int_disable_interrupts_lib.o)
                0x9d01a59c                INTDisableInterrupts

.text.INTEnableInterrupts
                0x9d01a5a4        0x8
 .text.INTEnableInterrupts
                0x9d01a5a4        0x8 c:/program files (x86)/microchip/xc32/v1.10/bin/../lib/gcc/pic32mx/4.5.1/../../../../pic32mx/lib\libmchp_peripheral_32MX795F512L.a(int_enable_interrupts_lib.o)
                0x9d01a5a4                INTEnableInterrupts

.text._on_reset
                0x9d01a5ac        0x8
 .text._on_reset
                0x9d01a5ac        0x8 c:/program files (x86)/microchip/xc32/v1.10/bin/../lib/gcc/pic32mx/4.5.1/../../../../pic32mx/lib\libpic32.a(default-on-reset.o)
                0x9d01a5ac                _on_reset

.text._on_bootstrap
                0x9d01a5b4        0x8
 .text._on_bootstrap
                0x9d01a5b4        0x8 c:/program files (x86)/microchip/xc32/v1.10/bin/../lib/gcc/pic32mx/4.5.1/../../../../pic32mx/lib\libpic32.a(default-on-bootstrap.o)
                0x9d01a5b4                _on_bootstrap

.text.getpagesize
                0x9d01a5bc        0x8
 .text.getpagesize
                0x9d01a5bc        0x8 c:/program files (x86)/microchip/xc32/v1.10/bin/../lib/gcc/pic32mx/4.5.1/../../../../pic32mx/lib\libpic32.a(sbrk.o)
                0x9d01a5bc                getpagesize

.text%z201      0x00000000        0x0
 .text          0x00000000        0x0 c:/program files (x86)/microchip/xc32/v1.10/bin/../lib/gcc/pic32mx/4.5.1/../../../../pic32mx/lib\libpic32.a(errno.o)

.text%z202      0x00000000        0x0
 .text          0x00000000        0x0 c:/program files (x86)/microchip/xc32/v1.10/bin/../lib/gcc/pic32mx/4.5.1/../../../../pic32mx/lib\libpic32.a(sbrk.o)

.text%z203      0x00000000        0x0
 .text          0x00000000        0x0 c:/program files (x86)/microchip/xc32/v1.10/bin/../lib/gcc/pic32mx/4.5.1/../../../../pic32mx/lib\libc.a(strncpy.o)

.text%z204      0x00000000        0x0
 .text          0x00000000        0x0 c:/program files (x86)/microchip/xc32/v1.10/bin/../lib/gcc/pic32mx/4.5.1/../../../../pic32mx/lib\libc.a(malloc.o)

.text%z205      0x00000000        0x0
 .text          0x00000000        0x0 c:/program files (x86)/microchip/xc32/v1.10/bin/../lib/gcc/pic32mx/4.5.1/../../../../pic32mx/lib\libc.a(calloc.o)

.text%z206      0x00000000        0x0
 .text          0x00000000        0x0 c:/program files (x86)/microchip/xc32/v1.10/bin/../lib/gcc/pic32mx/4.5.1/../../../../pic32mx/lib\libpic32.a(general-exception.o)

.text%z207      0x00000000        0x0
 .text          0x00000000        0x0 c:/program files (x86)/microchip/xc32/v1.10/bin/../lib/gcc/pic32mx/4.5.1/../../../../pic32mx/lib\libpic32.a(default-on-bootstrap.o)

.text%z208      0x00000000        0x0
 .text          0x00000000        0x0 c:/program files (x86)/microchip/xc32/v1.10/bin/../lib/gcc/pic32mx/4.5.1/../../../../pic32mx/lib\libpic32.a(default-on-reset.o)

.text%z209      0x00000000        0x0
 .text          0x00000000        0x0 c:/program files (x86)/microchip/xc32/v1.10/bin/../lib/gcc/pic32mx/4.5.1/../../../../pic32mx/lib\libpic32.a(default-bootstrap-exception-handler.o)

.text%z210      0x00000000        0x0
 .text          0x00000000        0x0 c:/program files (x86)/microchip/xc32/v1.10/bin/../lib/gcc/pic32mx/4.5.1/../../../../pic32mx/lib\libmchp_peripheral_32MX795F512L.a(int_enable_interrupts_lib.o)

.text%z211      0x00000000        0x0
 .text          0x00000000        0x0 c:/program files (x86)/microchip/xc32/v1.10/bin/../lib/gcc/pic32mx/4.5.1/../../../../pic32mx/lib\libmchp_peripheral_32MX795F512L.a(_ports_tbl_libp.o)

.text%z212      0x00000000        0x0
 .text          0x00000000        0x0 c:/program files (x86)/microchip/xc32/v1.10/bin/../lib/gcc/pic32mx/4.5.1/../../../../pic32mx/lib\libmchp_peripheral_32MX795F512L.a(port_set_pins_digital_out_lib.o)

.text%z213      0x00000000        0x0
 .text          0x00000000        0x0 c:/program files (x86)/microchip/xc32/v1.10/bin/../lib/gcc/pic32mx/4.5.1/../../../../pic32mx/lib\libmchp_peripheral_32MX795F512L.a(port_set_pins_digital_in_lib.o)

.text%z214      0x00000000        0x0
 .text          0x00000000        0x0 c:/program files (x86)/microchip/xc32/v1.10/bin/../lib/gcc/pic32mx/4.5.1/../../../../pic32mx/lib\libmchp_peripheral_32MX795F512L.a(int_tbl_lib.o)

.text%z215      0x00000000        0x0
 .text          0x00000000        0x0 c:/program files (x86)/microchip/xc32/v1.10/bin/../lib/gcc/pic32mx/4.5.1/../../../../pic32mx/lib\libmchp_peripheral_32MX795F512L.a(int_enable_mv_int_lib.o)

.text%z216      0x00000000        0x0
 .text          0x00000000        0x0 c:/program files (x86)/microchip/xc32/v1.10/bin/../lib/gcc/pic32mx/4.5.1/../../../../pic32mx/lib\libmchp_peripheral_32MX795F512L.a(int_restore_interrupts_lib.o)

.text%z217      0x00000000        0x0
 .text          0x00000000        0x0 c:/program files (x86)/microchip/xc32/v1.10/bin/../lib/gcc/pic32mx/4.5.1/../../../../pic32mx/lib\libmchp_peripheral_32MX795F512L.a(int_disable_interrupts_lib.o)

.text%z218      0x00000000        0x0
 .text          0x00000000        0x0 c:/program files (x86)/microchip/xc32/v1.10/bin/../lib/gcc/pic32mx/4.5.1/../../../../pic32mx/lib\libmchp_peripheral_32MX795F512L.a(pcache.o)

.text%z219      0x00000000        0x0
 .text          0x00000000        0x0 c:/program files (x86)/microchip/xc32/v1.10/bin/../lib/gcc/pic32mx/4.5.1/../../../../pic32mx/lib\libmchp_peripheral_32MX795F512L.a(eth_miim_access.o)

.text%z220      0x00000000        0x0
 .text          0x00000000        0x0 c:/program files (x86)/microchip/xc32/v1.10/bin/../lib/gcc/pic32mx/4.5.1/../../../../pic32mx/lib\libmchp_peripheral_32MX795F512L.a(_eth_append_busy_list_lib.o)

.text%z221      0x00000000        0x0
 .text          0x00000000        0x0 c:/program files (x86)/microchip/xc32/v1.10/bin/../lib/gcc/pic32mx/4.5.1/../../../../pic32mx/lib\libmchp_peripheral_32MX795F512L.a(eth_tx_packet_lib.o)

.text%z222      0x00000000        0x0
 .text          0x00000000        0x0 c:/program files (x86)/microchip/xc32/v1.10/bin/../lib/gcc/pic32mx/4.5.1/../../../../pic32mx/lib\libmchp_peripheral_32MX795F512L.a(eth_rx_set_buffer_size_lib.o)

.text%z223      0x00000000        0x0
 .text          0x00000000        0x0 c:/program files (x86)/microchip/xc32/v1.10/bin/../lib/gcc/pic32mx/4.5.1/../../../../pic32mx/lib\libmchp_peripheral_32MX795F512L.a(eth_rx_get_packet_lib.o)

.text%z224      0x00000000        0x0
 .text          0x00000000        0x0 c:/program files (x86)/microchip/xc32/v1.10/bin/../lib/gcc/pic32mx/4.5.1/../../../../pic32mx/lib\libmchp_peripheral_32MX795F512L.a(eth_rx_filters_lib.o)

.text%z225      0x00000000        0x0
 .text          0x00000000        0x0 c:/program files (x86)/microchip/xc32/v1.10/bin/../lib/gcc/pic32mx/4.5.1/../../../../pic32mx/lib\libmchp_peripheral_32MX795F512L.a(eth_rx_buffers_append_lib.o)

.text%z226      0x00000000        0x0
 .text          0x00000000        0x0 c:/program files (x86)/microchip/xc32/v1.10/bin/../lib/gcc/pic32mx/4.5.1/../../../../pic32mx/lib\libmchp_peripheral_32MX795F512L.a(eth_mac_set_address_max_lib.o)

.text%z227      0x00000000        0x0
 .text          0x00000000        0x0 c:/program files (x86)/microchip/xc32/v1.10/bin/../lib/gcc/pic32mx/4.5.1/../../../../pic32mx/lib\libmchp_peripheral_32MX795F512L.a(eth_mac_open_lib.o)

.text%z228      0x00000000        0x0
 .text          0x00000000        0x0 c:/program files (x86)/microchip/xc32/v1.10/bin/../lib/gcc/pic32mx/4.5.1/../../../../pic32mx/lib\libmchp_peripheral_32MX795F512L.a(eth_init_lib.o)

.text%z229      0x00000000        0x0
 .text          0x00000000        0x0 c:/program files (x86)/microchip/xc32/v1.10/bin/../lib/gcc/pic32mx/4.5.1/../../../../pic32mx/lib\libmchp_peripheral_32MX795F512L.a(eth_descriptors_add_lib.o)

.text%z230      0x00000000        0x0
 .text          0x00000000        0x0 c:/program files (x86)/microchip/xc32/v1.10/bin/../lib/gcc/pic32mx/4.5.1/../../../../pic32mx/lib\libmchp_peripheral_32MX795F512L.a(eth_ack_packet_lib.o)

.text%z231      0x00000000        0x0
 .text          0x00000000        0x0 c:/program files (x86)/microchip/xc32/v1.10/bin/../lib/gcc/pic32mx/4.5.1/../../../../pic32mx/lib\libmchp_peripheral.a(read_core_timer_lib.o)

.text%z232      0x00000000        0x0
 .text          0x00000000        0x0 c:/program files (x86)/microchip/xc32/v1.10/bin/../lib/gcc/pic32mx/4.5.1/../../../../pic32mx/lib/./proc/32MX795F512L\processor.o

.text%z233      0x00000000        0x0
 .text          0x00000000        0x0 build/XC32-PIC32_ETH_SK_ETH795/production/_ext/1472/CustomSSLCert.o

.text%z234      0x00000000        0x0
 .text          0x00000000        0x0 build/XC32-PIC32_ETH_SK_ETH795/production/_ext/1472/CustomSNMPApp.o

.text%z235      0x00000000        0x0
 .text          0x00000000        0x0 build/XC32-PIC32_ETH_SK_ETH795/production/_ext/1472/CustomHTTPApp.o

.text%z236      0x00000000        0x0
 .text          0x00000000        0x0 build/XC32-PIC32_ETH_SK_ETH795/production/_ext/243675038/WFDebugStrings.o

.text%z237      0x00000000        0x0
 .text          0x00000000        0x0 build/XC32-PIC32_ETH_SK_ETH795/production/_ext/1954962658/ZeroconfMulticastDNS.o

.text%z238      0x00000000        0x0
 .text          0x00000000        0x0 build/XC32-PIC32_ETH_SK_ETH795/production/_ext/1954962658/ZeroconfLinkLocal.o

.text%z239      0x00000000        0x0
 .text          0x00000000        0x0 build/XC32-PIC32_ETH_SK_ETH795/production/_ext/1954962658/ZeroconfHelper.o

.text%z240      0x00000000        0x0
 .text          0x00000000        0x0 build/XC32-PIC32_ETH_SK_ETH795/production/_ext/1954962658/UDPPerformanceTest.o

.text%z241      0x00000000        0x0
 .text          0x00000000        0x0 build/XC32-PIC32_ETH_SK_ETH795/production/_ext/1954962658/UART2TCPBridge.o

.text%z242      0x00000000        0x0
 .text          0x00000000        0x0 build/XC32-PIC32_ETH_SK_ETH795/production/_ext/1954962658/UART.o

.text%z243      0x00000000        0x0
 .text          0x00000000        0x0 build/XC32-PIC32_ETH_SK_ETH795/production/_ext/1954962658/Telnet.o

.text%z244      0x00000000        0x0
 .text          0x00000000        0x0 build/XC32-PIC32_ETH_SK_ETH795/production/_ext/1954962658/TFTPc.o

.text%z245      0x00000000        0x0
 .text          0x00000000        0x0 build/XC32-PIC32_ETH_SK_ETH795/production/_ext/1954962658/TCPPerformanceTest.o

.text%z246      0x00000000        0x0
 .text          0x00000000        0x0 build/XC32-PIC32_ETH_SK_ETH795/production/_ext/1954962658/SSL.o

.text%z247      0x00000000        0x0
 .text          0x00000000        0x0 build/XC32-PIC32_ETH_SK_ETH795/production/_ext/1954962658/SPIRAM.o

.text%z248      0x00000000        0x0
 .text          0x00000000        0x0 build/XC32-PIC32_ETH_SK_ETH795/production/_ext/1954962658/SPIFlash.o

.text%z249      0x00000000        0x0
 .text          0x00000000        0x0 build/XC32-PIC32_ETH_SK_ETH795/production/_ext/1954962658/SPIEEPROM.o

.text%z250      0x00000000        0x0
 .text          0x00000000        0x0 build/XC32-PIC32_ETH_SK_ETH795/production/_ext/1954962658/SNTP.o

.text%z251      0x00000000        0x0
 .text          0x00000000        0x0 build/XC32-PIC32_ETH_SK_ETH795/production/_ext/1954962658/SNMPv3USM.o

.text%z252      0x00000000        0x0
 .text          0x00000000        0x0 build/XC32-PIC32_ETH_SK_ETH795/production/_ext/1954962658/SNMPv3.o

.text%z253      0x00000000        0x0
 .text          0x00000000        0x0 build/XC32-PIC32_ETH_SK_ETH795/production/_ext/1954962658/SNMP.o

.text%z254      0x00000000        0x0
 .text          0x00000000        0x0 build/XC32-PIC32_ETH_SK_ETH795/production/_ext/1954962658/SMTP.o

.text%z255      0x00000000        0x0
 .text          0x00000000        0x0 build/XC32-PIC32_ETH_SK_ETH795/production/_ext/1954962658/Reboot.o

.text%z256      0x00000000        0x0
 .text          0x00000000        0x0 build/XC32-PIC32_ETH_SK_ETH795/production/_ext/1954962658/Random.o

.text%z257      0x00000000        0x0
 .text          0x00000000        0x0 build/XC32-PIC32_ETH_SK_ETH795/production/_ext/1954962658/RSA.o

.text%z258      0x00000000        0x0
 .text          0x00000000        0x0 build/XC32-PIC32_ETH_SK_ETH795/production/_ext/1954962658/NBNS.o

.text%z259      0x00000000        0x0
 .text          0x00000000        0x0 build/XC32-PIC32_ETH_SK_ETH795/production/_ext/1472/MPFSImg2.o

.text%z260      0x00000000        0x0
 .text          0x00000000        0x0 build/XC32-PIC32_ETH_SK_ETH795/production/_ext/1954962658/MPFS2.o

.text%z261      0x00000000        0x0
 .text          0x00000000        0x0 build/XC32-PIC32_ETH_SK_ETH795/production/_ext/1954962658/LCDBlocking.o

.text%z262      0x00000000        0x0
 .text          0x00000000        0x0 build/XC32-PIC32_ETH_SK_ETH795/production/_ext/1954962658/Hashes.o

.text%z263      0x00000000        0x0
 .text          0x00000000        0x0 build/XC32-PIC32_ETH_SK_ETH795/production/_ext/1954962658/HTTP2.o

.text%z264      0x00000000        0x0
 .text          0x00000000        0x0 build/XC32-PIC32_ETH_SK_ETH795/production/_ext/1954962658/FileSystem.o

.text%z265      0x00000000        0x0
 .text          0x00000000        0x0 build/XC32-PIC32_ETH_SK_ETH795/production/_ext/1954962658/FTP.o

.text%z266      0x00000000        0x0
 .text          0x00000000        0x0 build/XC32-PIC32_ETH_SK_ETH795/production/_ext/1954962658/ENCX24J600.o

.text%z267      0x00000000        0x0
 .text          0x00000000        0x0 build/XC32-PIC32_ETH_SK_ETH795/production/_ext/1954962658/ENC28J60.o

.text%z268      0x00000000        0x0
 .text          0x00000000        0x0 build/XC32-PIC32_ETH_SK_ETH795/production/_ext/1954962658/DynDNS.o

.text%z269      0x00000000        0x0
 .text          0x00000000        0x0 build/XC32-PIC32_ETH_SK_ETH795/production/_ext/1954962658/DNSs.o

.text%z270      0x00000000        0x0
 .text          0x00000000        0x0 build/XC32-PIC32_ETH_SK_ETH795/production/_ext/1954962658/BigInt_helper_PIC32.o

.text%z271      0x00000000        0x0
 .text          0x00000000        0x0 build/XC32-PIC32_ETH_SK_ETH795/production/_ext/1954962658/BigInt.o

.text%z272      0x00000000        0x0
 .text          0x00000000        0x0 build/XC32-PIC32_ETH_SK_ETH795/production/_ext/1954962658/Announce.o

.text%z273      0x00000000        0x0
 .text          0x00000000        0x0 build/XC32-PIC32_ETH_SK_ETH795/production/_ext/1954962658/ARCFOUR.o

.text%z274      0x00000000        0x0
 .text          0x00000000        0x0 build/XC32-PIC32_ETH_SK_ETH795/production/_ext/1472/UARTConfig.o

.text%z275      0x00000000        0x0
 .text          0x00000000        0x0 build/XC32-PIC32_ETH_SK_ETH795/production/_ext/1472/SMTPDemo.o
